
bin\Debug\AGV_project_deel2.elf:     file format elf32-avr

Sections:
Idx Name          Size      VMA       LMA       File off  Algn
  0 .data         00000004  00800200  0000127a  0000132e  2**0
                  CONTENTS, ALLOC, LOAD, DATA
  1 .text         0000127a  00000000  00000000  000000b4  2**1
                  CONTENTS, ALLOC, LOAD, READONLY, CODE
  2 .bss          00000018  00800204  00800204  00001332  2**0
                  ALLOC
  3 .fuse         00000003  00820000  00820000  00001332  2**0
                  CONTENTS, ALLOC, LOAD, DATA
  4 .comment      00000012  00000000  00000000  00001335  2**0
                  CONTENTS, READONLY
  5 .note.gnu.avr.deviceinfo 00000040  00000000  00000000  00001348  2**2
                  CONTENTS, READONLY, OCTETS
  6 .debug_aranges 00000178  00000000  00000000  00001388  2**3
                  CONTENTS, READONLY, DEBUGGING, OCTETS
  7 .debug_info   000021a5  00000000  00000000  00001500  2**0
                  CONTENTS, READONLY, DEBUGGING, OCTETS
  8 .debug_abbrev 00001425  00000000  00000000  000036a5  2**0
                  CONTENTS, READONLY, DEBUGGING, OCTETS
  9 .debug_line   00001df7  00000000  00000000  00004aca  2**0
                  CONTENTS, READONLY, DEBUGGING, OCTETS
 10 .debug_frame  000003c0  00000000  00000000  000068c4  2**2
                  CONTENTS, READONLY, DEBUGGING, OCTETS
 11 .debug_str    000008aa  00000000  00000000  00006c84  2**0
                  CONTENTS, READONLY, DEBUGGING, OCTETS
 12 .debug_line_str 00000228  00000000  00000000  0000752e  2**0
                  CONTENTS, READONLY, DEBUGGING, OCTETS
 13 .debug_loclists 00000620  00000000  00000000  00007756  2**0
                  CONTENTS, READONLY, DEBUGGING, OCTETS
 14 .debug_rnglists 0000002c  00000000  00000000  00007d76  2**0
                  CONTENTS, READONLY, DEBUGGING, OCTETS

Disassembly of section .text:

00000000 <__vectors>:
       0:	0c 94 72 00 	jmp	0xe4	; 0xe4 <__ctors_end>
       4:	0c 94 b7 00 	jmp	0x16e	; 0x16e <__vector_1>
       8:	0c 94 93 00 	jmp	0x126	; 0x126 <__bad_interrupt>
       c:	0c 94 93 00 	jmp	0x126	; 0x126 <__bad_interrupt>
      10:	0c 94 93 00 	jmp	0x126	; 0x126 <__bad_interrupt>
      14:	0c 94 cf 00 	jmp	0x19e	; 0x19e <__vector_5>
      18:	0c 94 93 00 	jmp	0x126	; 0x126 <__bad_interrupt>
      1c:	0c 94 93 00 	jmp	0x126	; 0x126 <__bad_interrupt>
      20:	0c 94 93 00 	jmp	0x126	; 0x126 <__bad_interrupt>
      24:	0c 94 93 00 	jmp	0x126	; 0x126 <__bad_interrupt>
      28:	0c 94 93 00 	jmp	0x126	; 0x126 <__bad_interrupt>
      2c:	0c 94 93 00 	jmp	0x126	; 0x126 <__bad_interrupt>
      30:	0c 94 93 00 	jmp	0x126	; 0x126 <__bad_interrupt>
      34:	0c 94 93 00 	jmp	0x126	; 0x126 <__bad_interrupt>
      38:	0c 94 93 00 	jmp	0x126	; 0x126 <__bad_interrupt>
      3c:	0c 94 93 00 	jmp	0x126	; 0x126 <__bad_interrupt>
      40:	0c 94 93 00 	jmp	0x126	; 0x126 <__bad_interrupt>
      44:	0c 94 93 00 	jmp	0x126	; 0x126 <__bad_interrupt>
      48:	0c 94 93 00 	jmp	0x126	; 0x126 <__bad_interrupt>
      4c:	0c 94 93 00 	jmp	0x126	; 0x126 <__bad_interrupt>
      50:	0c 94 93 00 	jmp	0x126	; 0x126 <__bad_interrupt>
      54:	0c 94 93 00 	jmp	0x126	; 0x126 <__bad_interrupt>
      58:	0c 94 93 00 	jmp	0x126	; 0x126 <__bad_interrupt>
      5c:	0c 94 93 00 	jmp	0x126	; 0x126 <__bad_interrupt>
      60:	0c 94 93 00 	jmp	0x126	; 0x126 <__bad_interrupt>
      64:	0c 94 93 00 	jmp	0x126	; 0x126 <__bad_interrupt>
      68:	0c 94 93 00 	jmp	0x126	; 0x126 <__bad_interrupt>
      6c:	0c 94 93 00 	jmp	0x126	; 0x126 <__bad_interrupt>
      70:	0c 94 93 00 	jmp	0x126	; 0x126 <__bad_interrupt>
      74:	0c 94 93 00 	jmp	0x126	; 0x126 <__bad_interrupt>
      78:	0c 94 93 00 	jmp	0x126	; 0x126 <__bad_interrupt>
      7c:	0c 94 93 00 	jmp	0x126	; 0x126 <__bad_interrupt>
      80:	0c 94 93 00 	jmp	0x126	; 0x126 <__bad_interrupt>
      84:	0c 94 93 00 	jmp	0x126	; 0x126 <__bad_interrupt>
      88:	0c 94 93 00 	jmp	0x126	; 0x126 <__bad_interrupt>
      8c:	0c 94 a2 00 	jmp	0x144	; 0x144 <__vector_35>
      90:	0c 94 93 00 	jmp	0x126	; 0x126 <__bad_interrupt>
      94:	0c 94 93 00 	jmp	0x126	; 0x126 <__bad_interrupt>
      98:	0c 94 93 00 	jmp	0x126	; 0x126 <__bad_interrupt>
      9c:	0c 94 93 00 	jmp	0x126	; 0x126 <__bad_interrupt>
      a0:	0c 94 93 00 	jmp	0x126	; 0x126 <__bad_interrupt>
      a4:	0c 94 93 00 	jmp	0x126	; 0x126 <__bad_interrupt>
      a8:	0c 94 93 00 	jmp	0x126	; 0x126 <__bad_interrupt>
      ac:	0c 94 93 00 	jmp	0x126	; 0x126 <__bad_interrupt>
      b0:	0c 94 93 00 	jmp	0x126	; 0x126 <__bad_interrupt>
      b4:	0c 94 93 00 	jmp	0x126	; 0x126 <__bad_interrupt>
      b8:	0c 94 93 00 	jmp	0x126	; 0x126 <__bad_interrupt>
      bc:	0c 94 93 00 	jmp	0x126	; 0x126 <__bad_interrupt>
      c0:	0c 94 93 00 	jmp	0x126	; 0x126 <__bad_interrupt>
      c4:	0c 94 93 00 	jmp	0x126	; 0x126 <__bad_interrupt>
      c8:	0c 94 93 00 	jmp	0x126	; 0x126 <__bad_interrupt>
      cc:	0c 94 93 00 	jmp	0x126	; 0x126 <__bad_interrupt>
      d0:	0c 94 93 00 	jmp	0x126	; 0x126 <__bad_interrupt>
      d4:	0c 94 93 00 	jmp	0x126	; 0x126 <__bad_interrupt>
      d8:	0c 94 93 00 	jmp	0x126	; 0x126 <__bad_interrupt>
      dc:	0c 94 93 00 	jmp	0x126	; 0x126 <__bad_interrupt>
      e0:	0c 94 93 00 	jmp	0x126	; 0x126 <__bad_interrupt>

000000e4 <__ctors_end>:
      e4:	11 24       	eor	r1, r1
      e6:	1f be       	out	0x3f, r1	; 63
      e8:	cf ef       	ldi	r28, 0xFF	; 255
      ea:	d1 e2       	ldi	r29, 0x21	; 33
      ec:	de bf       	out	0x3e, r29	; 62
      ee:	cd bf       	out	0x3d, r28	; 61
      f0:	00 e0       	ldi	r16, 0x00	; 0
      f2:	0c bf       	out	0x3c, r16	; 60

000000f4 <__do_copy_data>:
      f4:	12 e0       	ldi	r17, 0x02	; 2

000000f6 <.Loc.1>:
      f6:	a0 e0       	ldi	r26, 0x00	; 0

000000f8 <.Loc.2>:
      f8:	b2 e0       	ldi	r27, 0x02	; 2

000000fa <.Loc.3>:
      fa:	ea e7       	ldi	r30, 0x7A	; 122

000000fc <.Loc.4>:
      fc:	f2 e1       	ldi	r31, 0x12	; 18

000000fe <.Loc.5>:
      fe:	00 e0       	ldi	r16, 0x00	; 0

00000100 <.Loc.6>:
     100:	0b bf       	out	0x3b, r16	; 59

00000102 <.Loc.7>:
     102:	02 c0       	rjmp	.+4      	; 0x108 <.L__do_copy_data_start>

00000104 <.L__do_copy_data_loop>:
     104:	07 90       	elpm	r0, Z+

00000106 <.Loc.9>:
     106:	0d 92       	st	X+, r0

00000108 <.L__do_copy_data_start>:
     108:	a4 30       	cpi	r26, 0x04	; 4

0000010a <.Loc.11>:
     10a:	b1 07       	cpc	r27, r17

0000010c <.Loc.12>:
     10c:	d9 f7       	brne	.-10     	; 0x104 <.L__do_copy_data_loop>

0000010e <__do_clear_bss>:
     10e:	22 e0       	ldi	r18, 0x02	; 2

00000110 <.Loc.1>:
     110:	a4 e0       	ldi	r26, 0x04	; 4

00000112 <.Loc.2>:
     112:	b2 e0       	ldi	r27, 0x02	; 2

00000114 <.Loc.3>:
     114:	01 c0       	rjmp	.+2      	; 0x118 <.Loc.5>

00000116 <.Loc.4>:
     116:	1d 92       	st	X+, r1

00000118 <.Loc.5>:
     118:	ac 31       	cpi	r26, 0x1C	; 28

0000011a <.Loc.6>:
     11a:	b2 07       	cpc	r27, r18

0000011c <.Loc.7>:
     11c:	e1 f7       	brne	.-8      	; 0x116 <.Loc.4>

0000011e <L0^A>:
     11e:	0e 94 65 01 	call	0x2ca	; 0x2ca <main>
     122:	0c 94 3b 09 	jmp	0x1276	; 0x1276 <_exit>

00000126 <__bad_interrupt>:
     126:	0c 94 00 00 	jmp	0	; 0x0 <__vectors>

0000012a <acknowledge_agv>:
#include "rfid_module_lib.h"
#include "us_sensor_lib.h"


void acknowledge_agv(void) {
    ACK_AGV_PORT |= (1 << ACK_AGV);
     12a:	a2 9a       	sbi	0x14, 2	; 20

0000012c <.Loc.3>:
    TCNT3 = 0;
     12c:	10 92 95 00 	sts	0x0095, r1	; 0x800095 <__TEXT_REGION_LENGTH__+0x700095>
     130:	10 92 94 00 	sts	0x0094, r1	; 0x800094 <__TEXT_REGION_LENGTH__+0x700094>

00000134 <.Loc.5>:
    TIFR3 = (1 << TOV3);
     134:	81 e0       	ldi	r24, 0x01	; 1
     136:	88 bb       	out	0x18, r24	; 24

00000138 <.Loc.7>:
    TIMSK3 |= (1 << TOIE3);
     138:	e1 e7       	ldi	r30, 0x71	; 113
     13a:	f0 e0       	ldi	r31, 0x00	; 0
     13c:	80 81       	ld	r24, Z

0000013e <.Loc.8>:
     13e:	81 60       	ori	r24, 0x01	; 1
     140:	80 83       	st	Z, r24

00000142 <.Loc.9>:
}
     142:	08 95       	ret

00000144 <__vector_35>:

ISR(TIMER3_OVF_vect) {
     144:	8f 93       	push	r24
     146:	8f b7       	in	r24, 0x3f	; 63
     148:	8f 93       	push	r24
     14a:	8b b7       	in	r24, 0x3b	; 59
     14c:	8f 93       	push	r24
     14e:	ef 93       	push	r30
     150:	ff 93       	push	r31

00000152 <.Loc.11>:
    ACK_AGV_PORT &= ~(1 << ACK_AGV);
     152:	a2 98       	cbi	0x14, 2	; 20

00000154 <.Loc.13>:
    TIMSK3 &= ~(1 << TOIE3); // interrupt weer uitzetten
     154:	e1 e7       	ldi	r30, 0x71	; 113
     156:	f0 e0       	ldi	r31, 0x00	; 0
     158:	80 81       	ld	r24, Z
     15a:	8e 7f       	andi	r24, 0xFE	; 254
     15c:	80 83       	st	Z, r24

0000015e <.Loc.15>:
}
     15e:	ff 91       	pop	r31
     160:	ef 91       	pop	r30
     162:	8f 91       	pop	r24
     164:	8b bf       	out	0x3b, r24	; 59
     166:	8f 91       	pop	r24
     168:	8f bf       	out	0x3f, r24	; 63
     16a:	8f 91       	pop	r24
     16c:	18 95       	reti

0000016e <__vector_1>:
#include "navigatie_lib.h"
#include "rfid_module_lib.h"
#include "us_sensor_lib.h"

///deze interrupt is nieuw!
ISR(INT0_vect) { //module heeft commando geacknowledged
     16e:	2f 93       	push	r18
     170:	2f b7       	in	r18, 0x3f	; 63
     172:	2f 93       	push	r18
     174:	8f 93       	push	r24
     176:	9f 93       	push	r25

00000178 <.Loc.1>:
    NEXT_AGV_PORT &= ~(1 << NEXT_AGV);
     178:	40 98       	cbi	0x08, 0	; 8

0000017a <.Loc.3>:
    LIJN_PORT &= ~(1 << LIJN);
     17a:	5f 98       	cbi	0x0b, 7	; 11

0000017c <.Loc.5>:
    PORTB &= ~(1 << PB7);
     17c:	2f 98       	cbi	0x05, 7	; 5

0000017e <.LBB4>:
	#else
		//round up by default
		__ticks_dc = (uint32_t)(ceil(fabs(__tmp)));
	#endif

	__builtin_avr_delay_cycles(__ticks_dc);
     17e:	2f ef       	ldi	r18, 0xFF	; 255
     180:	89 e6       	ldi	r24, 0x69	; 105
     182:	98 e1       	ldi	r25, 0x18	; 24

00000184 <.L1^B1>:
     184:	21 50       	subi	r18, 0x01	; 1
     186:	80 40       	sbci	r24, 0x00	; 0
     188:	90 40       	sbci	r25, 0x00	; 0
     18a:	e1 f7       	brne	.-8      	; 0x184 <.L1^B1>
     18c:	00 c0       	rjmp	.+0      	; 0x18e <L0^A>

0000018e <L0^A>:
	...

00000190 <.LBE4>:
    _delay_ms(500);
    PORTB |= (1 << PB7);
     190:	2f 9a       	sbi	0x05, 7	; 5

00000192 <.Loc.18>:
}
     192:	9f 91       	pop	r25
     194:	8f 91       	pop	r24
     196:	2f 91       	pop	r18
     198:	2f bf       	out	0x3f, r18	; 63
     19a:	2f 91       	pop	r18
     19c:	18 95       	reti

0000019e <__vector_5>:

ISR(INT4_vect){
     19e:	1f 92       	push	r1
     1a0:	0f 92       	push	r0
     1a2:	0f b6       	in	r0, 0x3f	; 63
     1a4:	0f 92       	push	r0
     1a6:	11 24       	eor	r1, r1
     1a8:	0b b6       	in	r0, 0x3b	; 59
     1aa:	0f 92       	push	r0
     1ac:	2f 93       	push	r18
     1ae:	3f 93       	push	r19
     1b0:	4f 93       	push	r20
     1b2:	5f 93       	push	r21
     1b4:	6f 93       	push	r22
     1b6:	7f 93       	push	r23
     1b8:	8f 93       	push	r24
     1ba:	9f 93       	push	r25
     1bc:	af 93       	push	r26
     1be:	bf 93       	push	r27
     1c0:	ef 93       	push	r30
     1c2:	ff 93       	push	r31

000001c4 <.Loc.20>:
    lijnInterrupt(WRITE);
     1c4:	81 e0       	ldi	r24, 0x01	; 1
     1c6:	90 e0       	ldi	r25, 0x00	; 0
     1c8:	0e 94 b1 03 	call	0x762	; 0x762 <lijnInterrupt>

000001cc <.LVL2>:
}
     1cc:	ff 91       	pop	r31
     1ce:	ef 91       	pop	r30
     1d0:	bf 91       	pop	r27
     1d2:	af 91       	pop	r26
     1d4:	9f 91       	pop	r25
     1d6:	8f 91       	pop	r24
     1d8:	7f 91       	pop	r23
     1da:	6f 91       	pop	r22
     1dc:	5f 91       	pop	r21
     1de:	4f 91       	pop	r20
     1e0:	3f 91       	pop	r19
     1e2:	2f 91       	pop	r18
     1e4:	0f 90       	pop	r0
     1e6:	0b be       	out	0x3b, r0	; 59
     1e8:	0f 90       	pop	r0
     1ea:	0f be       	out	0x3f, r0	; 63
     1ec:	0f 90       	pop	r0
     1ee:	1f 90       	pop	r1
     1f0:	18 95       	reti

000001f2 <init_rfid_module>:

void init_rfid_module(void) { // timer voor 2 sec stilstaan
    TCCR4B |= (1 << CS42);
     1f2:	e1 ea       	ldi	r30, 0xA1	; 161
     1f4:	f0 e0       	ldi	r31, 0x00	; 0
     1f6:	80 81       	ld	r24, Z

000001f8 <.Loc.24>:
     1f8:	84 60       	ori	r24, 0x04	; 4
     1fa:	80 83       	st	Z, r24

000001fc <.Loc.25>:
    TCCR4B &= ~(1 << CS41);
     1fc:	80 81       	ld	r24, Z
     1fe:	8d 7f       	andi	r24, 0xFD	; 253
     200:	80 83       	st	Z, r24

00000202 <.Loc.27>:
    TCCR4B &= ~(1 << CS40);
     202:	80 81       	ld	r24, Z
     204:	8e 7f       	andi	r24, 0xFE	; 254
     206:	80 83       	st	Z, r24

00000208 <.Loc.29>:
}
     208:	08 95       	ret

0000020a <init_us_sensor>:

void init_us_sensor(void){
    //ULTRASOON Echo als INPUT configureren
    US_ECHO_R_VOOR_DDR &= ~(1 << US_ECHO_R_VOOR);
     20a:	3f 98       	cbi	0x07, 7	; 7

0000020c <.Loc.33>:
    US_ECHO_L_VOOR_DDR &= ~(1 << US_ECHO_L_VOOR);
     20c:	0e 98       	cbi	0x01, 6	; 1

0000020e <.Loc.35>:
    US_ECHO_R_ACHTER_DDR &= ~(1 << US_ECHO_R_ACHTER);
     20e:	3b 98       	cbi	0x07, 3	; 7

00000210 <.Loc.37>:
    US_ECHO_L_ACHTER_DDR &= ~(1 << US_ECHO_L_ACHTER);
     210:	3d 98       	cbi	0x07, 5	; 7

00000212 <.Loc.39>:

    //ULTRASOON Trigger als OUTPUT configureren
    US_TRIG_R_VOOR_DDR |= (1 << US_TRIG_R_VOOR);
     212:	3e 9a       	sbi	0x07, 6	; 7

00000214 <.Loc.41>:
    US_TRIG_L_VOOR_DDR |= (1 << US_TRIG_L_VOOR);
     214:	0f 9a       	sbi	0x01, 7	; 1

00000216 <.Loc.43>:
    US_TRIG_R_ACHTER_DDR |= (1 << US_TRIG_R_ACHTER);
     216:	3a 9a       	sbi	0x07, 2	; 7

00000218 <.Loc.45>:
    US_TRIG_L_ACHTER_DDR |= (1 << US_TRIG_L_ACHTER);
     218:	3c 9a       	sbi	0x07, 4	; 7

0000021a <.Loc.47>:

    //ULTRASOON Echo laagzetten
    US_TRIG_R_VOOR_PORT &= ~(1 << US_ECHO_R_VOOR);
     21a:	47 98       	cbi	0x08, 7	; 8

0000021c <.Loc.49>:
    US_TRIG_L_VOOR_PORT &= ~(1 << US_ECHO_L_VOOR);
     21c:	16 98       	cbi	0x02, 6	; 2

0000021e <.Loc.51>:
    US_TRIG_R_ACHTER_PORT &= ~(1 << US_ECHO_R_ACHTER);
     21e:	43 98       	cbi	0x08, 3	; 8

00000220 <.Loc.53>:
    US_TRIG_L_ACHTER_PORT &= ~(1 << US_ECHO_L_ACHTER);
     220:	45 98       	cbi	0x08, 5	; 8

00000222 <.Loc.55>:
}
     222:	08 95       	ret

00000224 <init_lijndetectieIR>:
void init_lijndetectieIR(void){
    //IR lijndetectie als INPUT configureren
    IR_lijdetectie_DDR &= ~(1 << IR_lijdetectie);
     224:	6c 98       	cbi	0x0d, 4	; 13

00000226 <.Loc.59>:

    //IR lijndetectie pull-up aanzetten
    IR_lijdetectie_PORT &= ~(1 << IR_lijdetectie);
     226:	74 98       	cbi	0x0e, 4	; 14

00000228 <.Loc.61>:

    //interrupt
    ///EIMSK |= (1 << INT4); // interrupt 4 (pin 2) aanzetten
    EICRB |= (1 << ISC41) | (1 << ISC40); // interrupt 4 (pin 2), interrupt op rising edge
     228:	ea e6       	ldi	r30, 0x6A	; 106
     22a:	f0 e0       	ldi	r31, 0x00	; 0
     22c:	80 81       	ld	r24, Z

0000022e <.Loc.62>:
     22e:	83 60       	ori	r24, 0x03	; 3
     230:	80 83       	st	Z, r24

00000232 <.Loc.63>:
}
     232:	08 95       	ret

00000234 <init_h_brug_dual>:

void init_h_brug_dual(void){
    //PWM als output configureren
    PWM_R_DDR |= (1 << PWM_R);
     234:	aa e0       	ldi	r26, 0x0A	; 10
     236:	b1 e0       	ldi	r27, 0x01	; 1
     238:	8c 91       	ld	r24, X

0000023a <.Loc.66>:
     23a:	80 62       	ori	r24, 0x20	; 32
     23c:	8c 93       	st	X, r24

0000023e <.Loc.67>:
    PWM_L_DDR |= (1 << PWM_L);
     23e:	8c 91       	ld	r24, X

00000240 <.Loc.68>:
     240:	88 60       	ori	r24, 0x08	; 8
     242:	8c 93       	st	X, r24

00000244 <.Loc.69>:

    //PWM laagzetten
    PWM_R_PORT &= ~(1 << PWM_R);
     244:	eb e0       	ldi	r30, 0x0B	; 11
     246:	f1 e0       	ldi	r31, 0x01	; 1
     248:	80 81       	ld	r24, Z
     24a:	8f 7d       	andi	r24, 0xDF	; 223
     24c:	80 83       	st	Z, r24

0000024e <.Loc.71>:
    PWM_L_PORT &= ~(1 << PWM_L);
     24e:	80 81       	ld	r24, Z
     250:	87 7f       	andi	r24, 0xF7	; 247
     252:	80 83       	st	Z, r24

00000254 <.Loc.73>:

    //IN als output
    PWM_IN_1_DDR |= (1 << PWM_IN_1); // IN 1 --> motor A = rechts
     254:	8c 91       	ld	r24, X

00000256 <.Loc.74>:
     256:	80 64       	ori	r24, 0x40	; 64
     258:	8c 93       	st	X, r24

0000025a <.Loc.75>:
    PWM_IN_2_DDR |= (1 << PWM_IN_2); // IN 2 --> motor A = rechts
     25a:	8c 91       	ld	r24, X

0000025c <.Loc.76>:
     25c:	80 61       	ori	r24, 0x10	; 16
     25e:	8c 93       	st	X, r24

00000260 <.Loc.77>:
    PWM_IN_3_DDR |= (1 << PWM_IN_3); // IN 3 --> motor B = links
     260:	8c 91       	ld	r24, X

00000262 <.Loc.78>:
     262:	84 60       	ori	r24, 0x04	; 4
     264:	8c 93       	st	X, r24

00000266 <.Loc.79>:
    PWM_IN_4_DDR |= (1 << PWM_IN_4); // IN 4 --> motor B = links
     266:	8c 91       	ld	r24, X

00000268 <.Loc.80>:
     268:	81 60       	ori	r24, 0x01	; 1
     26a:	8c 93       	st	X, r24

0000026c <.Loc.81>:

    //IN laagzetten
    PWM_IN_1_PORT &= ~(1 << PWM_IN_1); // IN 1 --> motor A = rechts
     26c:	80 81       	ld	r24, Z
     26e:	8f 7b       	andi	r24, 0xBF	; 191
     270:	80 83       	st	Z, r24

00000272 <.Loc.83>:
    PWM_IN_2_PORT &= ~(1 << PWM_IN_2); // IN 2 --> motor A = rechts
     272:	80 81       	ld	r24, Z
     274:	8f 7e       	andi	r24, 0xEF	; 239
     276:	80 83       	st	Z, r24

00000278 <.Loc.85>:
    PWM_IN_3_PORT &= ~(1 << PWM_IN_3); // IN 3 --> motor B = links
     278:	80 81       	ld	r24, Z
     27a:	8b 7f       	andi	r24, 0xFB	; 251
     27c:	80 83       	st	Z, r24

0000027e <.Loc.87>:
    PWM_IN_4_PORT &= ~(1 << PWM_IN_4); // IN 4 --> motor B = links
     27e:	80 81       	ld	r24, Z
     280:	8e 7f       	andi	r24, 0xFE	; 254
     282:	80 83       	st	Z, r24

00000284 <.Loc.89>:
}
     284:	08 95       	ret

00000286 <init_communicatie>:

void init_communicatie(void){
    // MODULE (INPUT)
    MODNUMMER_DDR &= ~(1 << MODNUMMER);
     286:	98 98       	cbi	0x13, 0	; 19

00000288 <.Loc.93>:
    NEXT_MOD_DDR &= ~(1 << NEXT_MOD);
     288:	99 98       	cbi	0x13, 1	; 19

0000028a <.Loc.95>:
    ACK_MOD_DDR &= ~(1 << ACK_MOD);
     28a:	50 98       	cbi	0x0a, 0	; 10

0000028c <.Loc.97>:

    // AGV (OUTPUT)
    NEXT_AGV_DDR |= (1 << NEXT_AGV);
     28c:	38 9a       	sbi	0x07, 0	; 7

0000028e <.Loc.100>:
    ACK_AGV_DDR |= (1 << ACK_AGV);
     28e:	9a 9a       	sbi	0x13, 2	; 19

00000290 <.Loc.101>:
    LIJN_DDR |= (1 << LIJN);
     290:	57 9a       	sbi	0x0a, 7	; 10

00000292 <.Loc.103>:

    // Laagzetten
    NEXT_AGV_PORT &= ~(1 << NEXT_AGV);
     292:	40 98       	cbi	0x08, 0	; 8

00000294 <.Loc.105>:
    ACK_AGV_PORT &= ~(1 << ACK_AGV);
     294:	a2 98       	cbi	0x14, 2	; 20

00000296 <.Loc.107>:
    LIJN_PORT &= ~(1 << LIJN);
     296:	5f 98       	cbi	0x0b, 7	; 11

00000298 <.Loc.109>:

    // PULL-UP AAN
    MODNUMMER_PORT &= ~(1 << MODNUMMER);
     298:	a0 98       	cbi	0x14, 0	; 20

0000029a <.Loc.111>:
    NEXT_MOD_PORT &= ~(1 << MODNUMMER);
     29a:	a0 98       	cbi	0x14, 0	; 20

0000029c <.Loc.113>:
    ACK_MOD_PORT &= ~(1 << ACK_MOD);
     29c:	58 98       	cbi	0x0b, 0	; 11

0000029e <.Loc.115>:

    // EXTERNE INTERRUPT ACKNOWLEDGE VAN MODULE
    EIMSK |= (1 << INT0); // interrupt 0 (pin 21) aanzetten
     29e:	e8 9a       	sbi	0x1d, 0	; 29

000002a0 <.Loc.117>:
    EICRA |= (1 << ISC01) | (1 << ISC00); // interrupt 0 (pin 21), interrupt op rising edge
     2a0:	e9 e6       	ldi	r30, 0x69	; 105
     2a2:	f0 e0       	ldi	r31, 0x00	; 0
     2a4:	80 81       	ld	r24, Z

000002a6 <.Loc.118>:
     2a6:	83 60       	ori	r24, 0x03	; 3
     2a8:	80 83       	st	Z, r24

000002aa <.Loc.119>:

    // TIMER 3
    TCCR3B = (0 << CS32)|(1 << CS31)|(0 << CS30);
     2aa:	82 e0       	ldi	r24, 0x02	; 2
     2ac:	80 93 91 00 	sts	0x0091, r24	; 0x800091 <__TEXT_REGION_LENGTH__+0x700091>

000002b0 <.Loc.121>:
}
     2b0:	08 95       	ret

000002b2 <init>:




void init(void){
    init_rfid_module();
     2b2:	0e 94 f9 00 	call	0x1f2	; 0x1f2 <init_rfid_module>

000002b6 <.LVL3>:
    init_us_sensor();
     2b6:	0e 94 05 01 	call	0x20a	; 0x20a <init_us_sensor>

000002ba <.LVL4>:
    init_lijndetectieIR();
     2ba:	0e 94 12 01 	call	0x224	; 0x224 <init_lijndetectieIR>

000002be <.LVL5>:
    init_h_brug_dual();
     2be:	0e 94 1a 01 	call	0x234	; 0x234 <init_h_brug_dual>

000002c2 <.LVL6>:
    init_communicatie();
     2c2:	0e 94 43 01 	call	0x286	; 0x286 <init_communicatie>

000002c6 <.LVL7>:
    sei();
     2c6:	78 94       	sei

000002c8 <.Loc.129>:
}
     2c8:	08 95       	ret

000002ca <main>:


int main(void)
{
    /// hier komt de code voor de AGV ///
    init();
     2ca:	0e 94 59 01 	call	0x2b2	; 0x2b2 <init>

000002ce <.LBB4>:
     2ce:	2f ef       	ldi	r18, 0xFF	; 255
     2d0:	83 ed       	ldi	r24, 0xD3	; 211
     2d2:	90 e3       	ldi	r25, 0x30	; 48

000002d4 <.L1^B1>:
     2d4:	21 50       	subi	r18, 0x01	; 1
     2d6:	80 40       	sbci	r24, 0x00	; 0
     2d8:	90 40       	sbci	r25, 0x00	; 0
     2da:	e1 f7       	brne	.-8      	; 0x2d4 <.L1^B1>
     2dc:	00 c0       	rjmp	.+0      	; 0x2de <L0^A>

000002de <L0^A>:
	...

000002e0 <.LBE4>:
    while(1){
        test_AGV_ontvang();
        test_module_versturen();
    }
    //*/
    motor_config(VOORUIT, RECHTS);
     2e0:	60 e0       	ldi	r22, 0x00	; 0
     2e2:	70 e0       	ldi	r23, 0x00	; 0
     2e4:	80 e0       	ldi	r24, 0x00	; 0
     2e6:	90 e0       	ldi	r25, 0x00	; 0
     2e8:	0e 94 eb 01 	call	0x3d6	; 0x3d6 <motor_config>

000002ec <.LVL2>:
    motor_config(VOORUIT, LINKS);
     2ec:	61 e0       	ldi	r22, 0x01	; 1
     2ee:	70 e0       	ldi	r23, 0x00	; 0
     2f0:	80 e0       	ldi	r24, 0x00	; 0
     2f2:	90 e0       	ldi	r25, 0x00	; 0
     2f4:	0e 94 eb 01 	call	0x3d6	; 0x3d6 <motor_config>

000002f8 <.LVL3>:

    motor_L(1.0);
     2f8:	60 e0       	ldi	r22, 0x00	; 0
     2fa:	70 e0       	ldi	r23, 0x00	; 0
     2fc:	80 e8       	ldi	r24, 0x80	; 128
     2fe:	9f e3       	ldi	r25, 0x3F	; 63
     300:	0e 94 bb 01 	call	0x376	; 0x376 <motor_L>

00000304 <.LVL4>:
    motor_R(1.0);
     304:	60 e0       	ldi	r22, 0x00	; 0
     306:	70 e0       	ldi	r23, 0x00	; 0
     308:	80 e8       	ldi	r24, 0x80	; 128
     30a:	9f e3       	ldi	r25, 0x3F	; 63
     30c:	0e 94 8b 01 	call	0x316	; 0x316 <motor_R>

00000310 <.L2>:

    while(1){
        padNavigerenNorm();
     310:	0e 94 df 02 	call	0x5be	; 0x5be <padNavigerenNorm>

00000314 <.LVL6>:
    while(1){
     314:	fd cf       	rjmp	.-6      	; 0x310 <.L2>

00000316 <motor_R>:
#include "navigatie_lib.h"
#include "rfid_module_lib.h"
#include "us_sensor_lib.h"

void motor_R(float factor)
{
     316:	cf 93       	push	r28
     318:	df 93       	push	r29
     31a:	00 d0       	rcall	.+0      	; 0x31c <L0^A>

0000031c <L0^A>:
     31c:	0f 92       	push	r0
     31e:	cd b7       	in	r28, 0x3d	; 61
     320:	de b7       	in	r29, 0x3e	; 62

00000322 <.Loc.2>:
    int motor_PWM_R = PWM * factor;
     322:	20 e0       	ldi	r18, 0x00	; 0
     324:	30 e6       	ldi	r19, 0x60	; 96
     326:	4a ee       	ldi	r20, 0xEA	; 234
     328:	56 e4       	ldi	r21, 0x46	; 70
     32a:	69 83       	std	Y+1, r22	; 0x01
     32c:	7a 83       	std	Y+2, r23	; 0x02
     32e:	8b 83       	std	Y+3, r24	; 0x03
     330:	9c 83       	std	Y+4, r25	; 0x04
     332:	69 81       	ldd	r22, Y+1	; 0x01
     334:	7a 81       	ldd	r23, Y+2	; 0x02
     336:	8b 81       	ldd	r24, Y+3	; 0x03
     338:	9c 81       	ldd	r25, Y+4	; 0x04

0000033a <.Loc.4>:
     33a:	0e 94 ce 08 	call	0x119c	; 0x119c <__mulsf3>

0000033e <.LVL2>:
     33e:	69 83       	std	Y+1, r22	; 0x01
     340:	7a 83       	std	Y+2, r23	; 0x02
     342:	8b 83       	std	Y+3, r24	; 0x03
     344:	9c 83       	std	Y+4, r25	; 0x04
     346:	69 81       	ldd	r22, Y+1	; 0x01
     348:	7a 81       	ldd	r23, Y+2	; 0x02
     34a:	8b 81       	ldd	r24, Y+3	; 0x03
     34c:	9c 81       	ldd	r25, Y+4	; 0x04
     34e:	0e 94 0a 08 	call	0x1014	; 0x1014 <__fixsfsi>

00000352 <.LVL3>:
     352:	86 2f       	mov	r24, r22
     354:	97 2f       	mov	r25, r23

00000356 <.Loc.6>:
    if (motor_PWM_R >= TOP_VALUE) motor_PWM_R = TOP_VALUE;
     356:	99 23       	and	r25, r25
     358:	5c f0       	brlt	.+22     	; 0x370 <.L4>

0000035a <.L2>:
    OCR5C = motor_PWM_R;
     35a:	90 93 2d 01 	sts	0x012D, r25	; 0x80012d <__TEXT_REGION_LENGTH__+0x70012d>
     35e:	80 93 2c 01 	sts	0x012C, r24	; 0x80012c <__TEXT_REGION_LENGTH__+0x70012c>

00000362 <.Loc.10>:
}
     362:	0f 90       	pop	r0
     364:	0f 90       	pop	r0
     366:	0f 90       	pop	r0
     368:	0f 90       	pop	r0
     36a:	df 91       	pop	r29
     36c:	cf 91       	pop	r28
     36e:	08 95       	ret

00000370 <.L4>:
    if (motor_PWM_R >= TOP_VALUE) motor_PWM_R = TOP_VALUE;
     370:	80 e4       	ldi	r24, 0x40	; 64
     372:	9c e9       	ldi	r25, 0x9C	; 156
     374:	f2 cf       	rjmp	.-28     	; 0x35a <.L2>

00000376 <motor_L>:

/// IFSTATEMENT VOOR PWM 0 EN 100

void motor_L(float factor)
{
     376:	cf 93       	push	r28
     378:	df 93       	push	r29
     37a:	00 d0       	rcall	.+0      	; 0x37c <L0^A>

0000037c <L0^A>:
     37c:	0f 92       	push	r0
     37e:	cd b7       	in	r28, 0x3d	; 61
     380:	de b7       	in	r29, 0x3e	; 62

00000382 <.Loc.14>:
    int motor_PWM_L = PWM * factor;
     382:	20 e0       	ldi	r18, 0x00	; 0
     384:	30 e6       	ldi	r19, 0x60	; 96
     386:	4a ee       	ldi	r20, 0xEA	; 234
     388:	56 e4       	ldi	r21, 0x46	; 70
     38a:	69 83       	std	Y+1, r22	; 0x01
     38c:	7a 83       	std	Y+2, r23	; 0x02
     38e:	8b 83       	std	Y+3, r24	; 0x03
     390:	9c 83       	std	Y+4, r25	; 0x04
     392:	69 81       	ldd	r22, Y+1	; 0x01
     394:	7a 81       	ldd	r23, Y+2	; 0x02
     396:	8b 81       	ldd	r24, Y+3	; 0x03
     398:	9c 81       	ldd	r25, Y+4	; 0x04

0000039a <.Loc.16>:
     39a:	0e 94 ce 08 	call	0x119c	; 0x119c <__mulsf3>

0000039e <.LVL9>:
     39e:	69 83       	std	Y+1, r22	; 0x01
     3a0:	7a 83       	std	Y+2, r23	; 0x02
     3a2:	8b 83       	std	Y+3, r24	; 0x03
     3a4:	9c 83       	std	Y+4, r25	; 0x04
     3a6:	69 81       	ldd	r22, Y+1	; 0x01
     3a8:	7a 81       	ldd	r23, Y+2	; 0x02
     3aa:	8b 81       	ldd	r24, Y+3	; 0x03
     3ac:	9c 81       	ldd	r25, Y+4	; 0x04
     3ae:	0e 94 0a 08 	call	0x1014	; 0x1014 <__fixsfsi>

000003b2 <.LVL10>:
     3b2:	86 2f       	mov	r24, r22
     3b4:	97 2f       	mov	r25, r23

000003b6 <.Loc.18>:
    if (motor_PWM_L >= TOP_VALUE) motor_PWM_L = TOP_VALUE;
     3b6:	99 23       	and	r25, r25
     3b8:	5c f0       	brlt	.+22     	; 0x3d0 <.L8>

000003ba <.L6>:
    OCR5A = motor_PWM_L;
     3ba:	90 93 29 01 	sts	0x0129, r25	; 0x800129 <__TEXT_REGION_LENGTH__+0x700129>
     3be:	80 93 28 01 	sts	0x0128, r24	; 0x800128 <__TEXT_REGION_LENGTH__+0x700128>

000003c2 <.Loc.22>:
}
     3c2:	0f 90       	pop	r0
     3c4:	0f 90       	pop	r0
     3c6:	0f 90       	pop	r0
     3c8:	0f 90       	pop	r0
     3ca:	df 91       	pop	r29
     3cc:	cf 91       	pop	r28
     3ce:	08 95       	ret

000003d0 <.L8>:
    if (motor_PWM_L >= TOP_VALUE) motor_PWM_L = TOP_VALUE;
     3d0:	80 e4       	ldi	r24, 0x40	; 64
     3d2:	9c e9       	ldi	r25, 0x9C	; 156
     3d4:	f2 cf       	rjmp	.-28     	; 0x3ba <.L6>

000003d6 <motor_config>:

void motor_config(int mode, int kant)
{
     3d6:	28 2f       	mov	r18, r24
     3d8:	39 2f       	mov	r19, r25
     3da:	86 2f       	mov	r24, r22

000003dc <.Loc.26>:
     3dc:	97 2f       	mov	r25, r23

000003de <.Loc.27>:
    enum motor_actie actie = mode;
    enum richting motor = kant;
    if (kant == LINKS) // y = 0s
     3de:	81 30       	cpi	r24, 0x01	; 1
     3e0:	91 05       	cpc	r25, r1
     3e2:	59 f0       	breq	.+22     	; 0x3fa <.L17>

000003e4 <.Loc.31>:
                break;
            }
        }
    }

    if (motor == RECHTS) // y = 1
     3e4:	89 2b       	or	r24, r25
     3e6:	41 f4       	brne	.+16     	; 0x3f8 <.L9>

000003e8 <.Loc.33>:
    {
        switch (actie)
     3e8:	21 30       	cpi	r18, 0x01	; 1
     3ea:	31 05       	cpc	r19, r1
     3ec:	91 f1       	breq	.+100    	; 0x452 <.L15>
     3ee:	22 30       	cpi	r18, 0x02	; 2
     3f0:	31 05       	cpc	r19, r1
     3f2:	c1 f1       	breq	.+112    	; 0x464 <.L16>
     3f4:	23 2b       	or	r18, r19
     3f6:	21 f1       	breq	.+72     	; 0x440 <.L18>

000003f8 <.L9>:
                PWM_IN_2_PORT |= (1 << PWM_IN_2);   //HIGH
                break;
            }
        }
    }
}
     3f8:	08 95       	ret

000003fa <.L17>:
        switch (mode)
     3fa:	21 30       	cpi	r18, 0x01	; 1
     3fc:	31 05       	cpc	r19, r1
     3fe:	71 f0       	breq	.+28     	; 0x41c <.L11>
     400:	22 30       	cpi	r18, 0x02	; 2
     402:	31 05       	cpc	r19, r1
     404:	a1 f0       	breq	.+40     	; 0x42e <.L12>
     406:	23 2b       	or	r18, r19
     408:	b9 f7       	brne	.-18     	; 0x3f8 <.L9>

0000040a <.Loc.36>:
                PWM_IN_3_PORT |= (1 << PWM_IN_3);   //HIGH
     40a:	eb e0       	ldi	r30, 0x0B	; 11
     40c:	f1 e0       	ldi	r31, 0x01	; 1
     40e:	80 81       	ld	r24, Z

00000410 <.Loc.37>:
     410:	84 60       	ori	r24, 0x04	; 4
     412:	80 83       	st	Z, r24

00000414 <.Loc.38>:
                PWM_IN_4_PORT &= ~(1 << PWM_IN_4);  //LOW
     414:	80 81       	ld	r24, Z
     416:	8e 7f       	andi	r24, 0xFE	; 254
     418:	80 83       	st	Z, r24

0000041a <.Loc.40>:
                break;
     41a:	08 95       	ret

0000041c <.L11>:
                PWM_IN_3_PORT &= ~(1 << PWM_IN_3);  //LOW
     41c:	eb e0       	ldi	r30, 0x0B	; 11
     41e:	f1 e0       	ldi	r31, 0x01	; 1
     420:	80 81       	ld	r24, Z

00000422 <.Loc.43>:
     422:	8b 7f       	andi	r24, 0xFB	; 251
     424:	80 83       	st	Z, r24

00000426 <.Loc.44>:
                PWM_IN_4_PORT |= (1 << PWM_IN_4);   //HIGH
     426:	80 81       	ld	r24, Z

00000428 <.Loc.45>:
     428:	81 60       	ori	r24, 0x01	; 1
     42a:	80 83       	st	Z, r24

0000042c <.Loc.46>:
                break;
     42c:	08 95       	ret

0000042e <.L12>:
                PWM_IN_3_PORT |= (1 << PWM_IN_3);   //HIGH
     42e:	eb e0       	ldi	r30, 0x0B	; 11
     430:	f1 e0       	ldi	r31, 0x01	; 1
     432:	80 81       	ld	r24, Z

00000434 <.Loc.48>:
     434:	84 60       	ori	r24, 0x04	; 4
     436:	80 83       	st	Z, r24

00000438 <.Loc.49>:
                PWM_IN_4_PORT |= (1 << PWM_IN_4);   //HIGH
     438:	80 81       	ld	r24, Z

0000043a <.Loc.50>:
     43a:	81 60       	ori	r24, 0x01	; 1
     43c:	80 83       	st	Z, r24

0000043e <.Loc.51>:
                break;
     43e:	08 95       	ret

00000440 <.L18>:
                PWM_IN_1_PORT |= (1 << PWM_IN_1);   //HIGH
     440:	eb e0       	ldi	r30, 0x0B	; 11
     442:	f1 e0       	ldi	r31, 0x01	; 1
     444:	80 81       	ld	r24, Z

00000446 <.Loc.53>:
     446:	80 64       	ori	r24, 0x40	; 64
     448:	80 83       	st	Z, r24

0000044a <.Loc.54>:
                PWM_IN_2_PORT &= ~(1 << PWM_IN_2);  //LOW
     44a:	80 81       	ld	r24, Z
     44c:	8f 7e       	andi	r24, 0xEF	; 239
     44e:	80 83       	st	Z, r24

00000450 <.Loc.56>:
                break;
     450:	08 95       	ret

00000452 <.L15>:
                PWM_IN_1_PORT &= ~(1 << PWM_IN_1);  //LOW
     452:	eb e0       	ldi	r30, 0x0B	; 11
     454:	f1 e0       	ldi	r31, 0x01	; 1
     456:	80 81       	ld	r24, Z

00000458 <.Loc.59>:
     458:	8f 7b       	andi	r24, 0xBF	; 191
     45a:	80 83       	st	Z, r24

0000045c <.Loc.60>:
                PWM_IN_2_PORT |= (1 << PWM_IN_2);   //HIGH
     45c:	80 81       	ld	r24, Z

0000045e <.Loc.61>:
     45e:	80 61       	ori	r24, 0x10	; 16
     460:	80 83       	st	Z, r24

00000462 <.Loc.62>:
                break;
     462:	08 95       	ret

00000464 <.L16>:
                PWM_IN_1_PORT |= (1 << PWM_IN_1);   //HIGH
     464:	eb e0       	ldi	r30, 0x0B	; 11
     466:	f1 e0       	ldi	r31, 0x01	; 1
     468:	80 81       	ld	r24, Z

0000046a <.Loc.64>:
     46a:	80 64       	ori	r24, 0x40	; 64
     46c:	80 83       	st	Z, r24

0000046e <.Loc.65>:
                PWM_IN_2_PORT |= (1 << PWM_IN_2);   //HIGH
     46e:	80 81       	ld	r24, Z

00000470 <.Loc.66>:
     470:	80 61       	ori	r24, 0x10	; 16
     472:	80 83       	st	Z, r24

00000474 <.Loc.67>:
}
     474:	c1 cf       	rjmp	.-126    	; 0x3f8 <.L9>

00000476 <percentageSteering_R>:
#include "navigatie_lib.h"
#include "rfid_module_lib.h"
#include "us_sensor_lib.h"

float percentageSteering_R(int temp) //int diffAfstand
{
     476:	cf 93       	push	r28
     478:	df 93       	push	r29
     47a:	00 d0       	rcall	.+0      	; 0x47c <L0^A>

0000047c <L0^A>:
     47c:	0f 92       	push	r0
     47e:	cd b7       	in	r28, 0x3d	; 61
     480:	de b7       	in	r29, 0x3e	; 62
     482:	28 2f       	mov	r18, r24
     484:	39 2f       	mov	r19, r25

00000486 <.Loc.2>:
    static float helftPadBreedte = HALF_PAD;
    static float percentageAfwijking = 0;
    if (helftPadBreedte < temp)  percentageAfwijking = 0;
     486:	20 31       	cpi	r18, 0x10	; 16
     488:	31 05       	cpc	r19, r1
     48a:	0c f0       	brlt	.+2      	; 0x48e <.Loc.6>

0000048c <L0^A>:
     48c:	41 c0       	rjmp	.+130    	; 0x510 <.L3>

0000048e <.Loc.6>:
     48e:	c9 01       	movw	r24, r18
     490:	33 0f       	add	r19, r19
     492:	aa 0b       	sbc	r26, r26
     494:	bb 0b       	sbc	r27, r27

00000496 <.Loc.8>:
     496:	89 83       	std	Y+1, r24	; 0x01
     498:	9a 83       	std	Y+2, r25	; 0x02
     49a:	ab 83       	std	Y+3, r26	; 0x03
     49c:	bc 83       	std	Y+4, r27	; 0x04
     49e:	bc 01       	movw	r22, r24
     4a0:	cd 01       	movw	r24, r26
     4a2:	0e 94 42 08 	call	0x1084	; 0x1084 <__floatsisf>

000004a6 <.LVL2>:
    else percentageAfwijking = (helftPadBreedte - temp)/helftPadBreedte;
     4a6:	26 2f       	mov	r18, r22
     4a8:	37 2f       	mov	r19, r23
     4aa:	48 2f       	mov	r20, r24
     4ac:	59 2f       	mov	r21, r25
     4ae:	60 e0       	ldi	r22, 0x00	; 0
     4b0:	70 e0       	ldi	r23, 0x00	; 0
     4b2:	80 e7       	ldi	r24, 0x70	; 112
     4b4:	91 e4       	ldi	r25, 0x41	; 65
     4b6:	0e 94 2b 07 	call	0xe56	; 0xe56 <__subsf3>

000004ba <.LVL3>:
     4ba:	20 e0       	ldi	r18, 0x00	; 0
     4bc:	30 e0       	ldi	r19, 0x00	; 0
     4be:	40 e7       	ldi	r20, 0x70	; 112
     4c0:	51 e4       	ldi	r21, 0x41	; 65
     4c2:	69 83       	std	Y+1, r22	; 0x01
     4c4:	7a 83       	std	Y+2, r23	; 0x02
     4c6:	8b 83       	std	Y+3, r24	; 0x03
     4c8:	9c 83       	std	Y+4, r25	; 0x04
     4ca:	69 81       	ldd	r22, Y+1	; 0x01
     4cc:	7a 81       	ldd	r23, Y+2	; 0x02
     4ce:	8b 81       	ldd	r24, Y+3	; 0x03
     4d0:	9c 81       	ldd	r25, Y+4	; 0x04
     4d2:	0e 94 98 07 	call	0xf30	; 0xf30 <__divsf3>

000004d6 <.LVL4>:
     4d6:	36 2f       	mov	r19, r22
     4d8:	27 2f       	mov	r18, r23

000004da <.L2>:
    if (helftPadBreedte < temp)  percentageAfwijking = 0;
     4da:	43 2f       	mov	r20, r19
     4dc:	52 2f       	mov	r21, r18
     4de:	68 2f       	mov	r22, r24
     4e0:	79 2f       	mov	r23, r25
     4e2:	40 93 18 02 	sts	0x0218, r20	; 0x800218 <percentageAfwijking.10>
     4e6:	50 93 19 02 	sts	0x0219, r21	; 0x800219 <percentageAfwijking.10+0x1>
     4ea:	60 93 1a 02 	sts	0x021A, r22	; 0x80021a <percentageAfwijking.10+0x2>
     4ee:	70 93 1b 02 	sts	0x021B, r23	; 0x80021b <percentageAfwijking.10+0x3>

000004f2 <.Loc.12>:
    return percentageAfwijking;
}
     4f2:	39 83       	std	Y+1, r19	; 0x01
     4f4:	2a 83       	std	Y+2, r18	; 0x02
     4f6:	8b 83       	std	Y+3, r24	; 0x03
     4f8:	9c 83       	std	Y+4, r25	; 0x04
     4fa:	69 81       	ldd	r22, Y+1	; 0x01
     4fc:	7a 81       	ldd	r23, Y+2	; 0x02
     4fe:	8b 81       	ldd	r24, Y+3	; 0x03
     500:	9c 81       	ldd	r25, Y+4	; 0x04
     502:	0f 90       	pop	r0
     504:	0f 90       	pop	r0
     506:	0f 90       	pop	r0
     508:	0f 90       	pop	r0
     50a:	df 91       	pop	r29
     50c:	cf 91       	pop	r28
     50e:	08 95       	ret

00000510 <.L3>:
     510:	30 e0       	ldi	r19, 0x00	; 0
     512:	20 e0       	ldi	r18, 0x00	; 0
     514:	80 e0       	ldi	r24, 0x00	; 0

00000516 <.Loc.15>:
     516:	90 e0       	ldi	r25, 0x00	; 0
     518:	e0 cf       	rjmp	.-64     	; 0x4da <.L2>

0000051a <percentageSteering_L>:

float percentageSteering_L(int temp) //int diffAfstand
{
     51a:	cf 93       	push	r28
     51c:	df 93       	push	r29
     51e:	00 d0       	rcall	.+0      	; 0x520 <L0^A>

00000520 <L0^A>:
     520:	0f 92       	push	r0
     522:	cd b7       	in	r28, 0x3d	; 61
     524:	de b7       	in	r29, 0x3e	; 62
     526:	28 2f       	mov	r18, r24
     528:	39 2f       	mov	r19, r25

0000052a <.Loc.18>:
    static float helftPadBreedte = HALF_PAD;
    static float percentageAfwijking = 0;
    if (helftPadBreedte < temp)  percentageAfwijking = 0;
     52a:	20 31       	cpi	r18, 0x10	; 16
     52c:	31 05       	cpc	r19, r1
     52e:	0c f0       	brlt	.+2      	; 0x532 <.Loc.22>

00000530 <L0^A>:
     530:	41 c0       	rjmp	.+130    	; 0x5b4 <.L6>

00000532 <.Loc.22>:
     532:	c9 01       	movw	r24, r18
     534:	33 0f       	add	r19, r19
     536:	aa 0b       	sbc	r26, r26
     538:	bb 0b       	sbc	r27, r27

0000053a <.Loc.24>:
     53a:	89 83       	std	Y+1, r24	; 0x01
     53c:	9a 83       	std	Y+2, r25	; 0x02
     53e:	ab 83       	std	Y+3, r26	; 0x03
     540:	bc 83       	std	Y+4, r27	; 0x04
     542:	bc 01       	movw	r22, r24
     544:	cd 01       	movw	r24, r26
     546:	0e 94 42 08 	call	0x1084	; 0x1084 <__floatsisf>

0000054a <.LVL9>:
    else percentageAfwijking = (helftPadBreedte - temp)/helftPadBreedte;
     54a:	26 2f       	mov	r18, r22
     54c:	37 2f       	mov	r19, r23
     54e:	48 2f       	mov	r20, r24
     550:	59 2f       	mov	r21, r25
     552:	60 e0       	ldi	r22, 0x00	; 0
     554:	70 e0       	ldi	r23, 0x00	; 0
     556:	80 e7       	ldi	r24, 0x70	; 112
     558:	91 e4       	ldi	r25, 0x41	; 65
     55a:	0e 94 2b 07 	call	0xe56	; 0xe56 <__subsf3>

0000055e <.LVL10>:
     55e:	20 e0       	ldi	r18, 0x00	; 0
     560:	30 e0       	ldi	r19, 0x00	; 0
     562:	40 e7       	ldi	r20, 0x70	; 112
     564:	51 e4       	ldi	r21, 0x41	; 65
     566:	69 83       	std	Y+1, r22	; 0x01
     568:	7a 83       	std	Y+2, r23	; 0x02
     56a:	8b 83       	std	Y+3, r24	; 0x03
     56c:	9c 83       	std	Y+4, r25	; 0x04
     56e:	69 81       	ldd	r22, Y+1	; 0x01
     570:	7a 81       	ldd	r23, Y+2	; 0x02
     572:	8b 81       	ldd	r24, Y+3	; 0x03
     574:	9c 81       	ldd	r25, Y+4	; 0x04
     576:	0e 94 98 07 	call	0xf30	; 0xf30 <__divsf3>

0000057a <.LVL11>:
     57a:	36 2f       	mov	r19, r22
     57c:	27 2f       	mov	r18, r23

0000057e <.L5>:
    if (helftPadBreedte < temp)  percentageAfwijking = 0;
     57e:	43 2f       	mov	r20, r19
     580:	52 2f       	mov	r21, r18
     582:	68 2f       	mov	r22, r24
     584:	79 2f       	mov	r23, r25
     586:	40 93 14 02 	sts	0x0214, r20	; 0x800214 <percentageAfwijking.8>
     58a:	50 93 15 02 	sts	0x0215, r21	; 0x800215 <percentageAfwijking.8+0x1>
     58e:	60 93 16 02 	sts	0x0216, r22	; 0x800216 <percentageAfwijking.8+0x2>
     592:	70 93 17 02 	sts	0x0217, r23	; 0x800217 <percentageAfwijking.8+0x3>

00000596 <.Loc.28>:
    return percentageAfwijking;
}
     596:	39 83       	std	Y+1, r19	; 0x01
     598:	2a 83       	std	Y+2, r18	; 0x02
     59a:	8b 83       	std	Y+3, r24	; 0x03
     59c:	9c 83       	std	Y+4, r25	; 0x04
     59e:	69 81       	ldd	r22, Y+1	; 0x01
     5a0:	7a 81       	ldd	r23, Y+2	; 0x02
     5a2:	8b 81       	ldd	r24, Y+3	; 0x03
     5a4:	9c 81       	ldd	r25, Y+4	; 0x04
     5a6:	0f 90       	pop	r0
     5a8:	0f 90       	pop	r0
     5aa:	0f 90       	pop	r0
     5ac:	0f 90       	pop	r0
     5ae:	df 91       	pop	r29
     5b0:	cf 91       	pop	r28
     5b2:	08 95       	ret

000005b4 <.L6>:
     5b4:	30 e0       	ldi	r19, 0x00	; 0
     5b6:	20 e0       	ldi	r18, 0x00	; 0
     5b8:	80 e0       	ldi	r24, 0x00	; 0

000005ba <.Loc.31>:
     5ba:	90 e0       	ldi	r25, 0x00	; 0
     5bc:	e0 cf       	rjmp	.-64     	; 0x57e <.L5>

000005be <padNavigerenNorm>:

void padNavigerenNorm(void)
{
     5be:	0f 93       	push	r16
     5c0:	1f 93       	push	r17
     5c2:	cf 93       	push	r28
     5c4:	df 93       	push	r29
     5c6:	00 d0       	rcall	.+0      	; 0x5c8 <L0^A>

000005c8 <L0^A>:
     5c8:	0f 92       	push	r0
     5ca:	cd b7       	in	r28, 0x3d	; 61
     5cc:	de b7       	in	r29, 0x3e	; 62

000005ce <.Loc.33>:
    static unsigned int diffAfstand = 0;
    static unsigned int afstand_L = 0;
    static unsigned int afstand_R = 0;
    int rfid_module_teller = 0;
    //lijnInterrupt(RESET);
    motor_config(VOORUIT, LINKS);
     5ce:	61 e0       	ldi	r22, 0x01	; 1
     5d0:	70 e0       	ldi	r23, 0x00	; 0
     5d2:	80 e0       	ldi	r24, 0x00	; 0
     5d4:	90 e0       	ldi	r25, 0x00	; 0
     5d6:	0e 94 eb 01 	call	0x3d6	; 0x3d6 <motor_config>

000005da <.LVL15>:
    motor_config(VOORUIT, RECHTS);
     5da:	60 e0       	ldi	r22, 0x00	; 0
     5dc:	70 e0       	ldi	r23, 0x00	; 0
     5de:	80 e0       	ldi	r24, 0x00	; 0
     5e0:	90 e0       	ldi	r25, 0x00	; 0
     5e2:	0e 94 eb 01 	call	0x3d6	; 0x3d6 <motor_config>

000005e6 <.LVL16>:

    motor_L(1.0);
     5e6:	60 e0       	ldi	r22, 0x00	; 0
     5e8:	70 e0       	ldi	r23, 0x00	; 0
     5ea:	80 e8       	ldi	r24, 0x80	; 128
     5ec:	9f e3       	ldi	r25, 0x3F	; 63
     5ee:	0e 94 bb 01 	call	0x376	; 0x376 <motor_L>

000005f2 <.LVL17>:
    motor_R(1.0);
     5f2:	60 e0       	ldi	r22, 0x00	; 0
     5f4:	70 e0       	ldi	r23, 0x00	; 0
     5f6:	80 e8       	ldi	r24, 0x80	; 128
     5f8:	9f e3       	ldi	r25, 0x3F	; 63
     5fa:	0e 94 8b 01 	call	0x316	; 0x316 <motor_R>

000005fe <.LVL18>:
    int rfid_module_teller = 0;
     5fe:	00 e0       	ldi	r16, 0x00	; 0
     600:	10 e0       	ldi	r17, 0x00	; 0

00000602 <.Loc.45>:
    int wandenWeg = 0;
     602:	1a 82       	std	Y+2, r1	; 0x02
     604:	19 82       	std	Y+1, r1	; 0x01
     606:	23 c0       	rjmp	.+70     	; 0x64e <.L21>

00000608 <.L27>:
     608:	80 e0       	ldi	r24, 0x00	; 0
     60a:	90 e0       	ldi	r25, 0x00	; 0

0000060c <.Loc.47>:
     60c:	03 30       	cpi	r16, 0x03	; 3
     60e:	11 05       	cpc	r17, r1
     610:	24 f4       	brge	.+8      	; 0x61a <.L13>
     612:	82 e0       	ldi	r24, 0x02	; 2
     614:	90 e0       	ldi	r25, 0x00	; 0
     616:	80 1b       	sub	r24, r16
     618:	91 0b       	sbc	r25, r17

0000061a <.L13>:
     61a:	08 0f       	add	r16, r24
     61c:	19 1f       	adc	r17, r25

0000061e <.L8>:
            }

        }


        afstand_L = ultrasoonAfstand_L_VOOR();
     61e:	0e 94 05 06 	call	0xc0a	; 0xc0a <ultrasoonAfstand_L_VOOR>

00000622 <.LVL22>:
     622:	90 93 13 02 	sts	0x0213, r25	; 0x800213 <afstand_L.7+0x1>
     626:	80 93 12 02 	sts	0x0212, r24	; 0x800212 <afstand_L.7>

0000062a <.Loc.51>:
        afstand_R = ultrasoonAfstand_R_VOOR();
     62a:	0e 94 a3 05 	call	0xb46	; 0xb46 <ultrasoonAfstand_R_VOOR>

0000062e <.LVL23>:
     62e:	90 93 11 02 	sts	0x0211, r25	; 0x800211 <afstand_R.6+0x1>
     632:	80 93 10 02 	sts	0x0210, r24	; 0x800210 <afstand_R.6>

00000636 <.Loc.54>:

        ///print_waarde(afstandL);   ///TEST

        if ((ultrasoonAfstand_R_VOOR() > VERWEG) || (ultrasoonAfstand_L_VOOR() > VERWEG)) wandenWeg++;
     636:	0e 94 a3 05 	call	0xb46	; 0xb46 <ultrasoonAfstand_R_VOOR>

0000063a <.LVL24>:
     63a:	4f 97       	sbiw	r24, 0x1f	; 31
     63c:	30 f1       	brcs	.+76     	; 0x68a <.L25>

0000063e <.L14>:
     63e:	89 81       	ldd	r24, Y+1	; 0x01
     640:	9a 81       	ldd	r25, Y+2	; 0x02
     642:	01 96       	adiw	r24, 0x01	; 1
     644:	9a 83       	std	Y+2, r25	; 0x02
     646:	89 83       	std	Y+1, r24	; 0x01

00000648 <.Loc.59>:
    while (wandenWeg < 2 /*&& lijnInterrupt(READ)*/){
     648:	02 97       	sbiw	r24, 0x02	; 2
     64a:	0c f0       	brlt	.+2      	; 0x64e <.L21>

0000064c <L0^A>:
     64c:	75 c0       	rjmp	.+234    	; 0x738 <.L26>

0000064e <.L21>:
        if (((MODNUMMER_PIN & (1 << MODNUMMER)) == 0) && ((NEXT_MOD_PIN & (1 << NEXT_MOD)) != 0)){
     64e:	90 99       	sbic	0x12, 0	; 18
     650:	e6 cf       	rjmp	.-52     	; 0x61e <.L8>

00000652 <.Loc.62>:
     652:	91 9b       	sbis	0x12, 1	; 18
     654:	e4 cf       	rjmp	.-56     	; 0x61e <.L8>

00000656 <.Loc.63>:
            motor_L(0.0);
     656:	60 e0       	ldi	r22, 0x00	; 0
     658:	70 e0       	ldi	r23, 0x00	; 0
     65a:	cb 01       	movw	r24, r22
     65c:	0e 94 bb 01 	call	0x376	; 0x376 <motor_L>

00000660 <.LVL27>:
            motor_R(0.0);
     660:	60 e0       	ldi	r22, 0x00	; 0
     662:	70 e0       	ldi	r23, 0x00	; 0
     664:	cb 01       	movw	r24, r22
     666:	0e 94 8b 01 	call	0x316	; 0x316 <motor_R>

0000066a <.LVL28>:
            acknowledge_agv();
     66a:	0e 94 95 00 	call	0x12a	; 0x12a <acknowledge_agv>

0000066e <.LVL29>:
            TCNT4 = 0;
     66e:	10 92 a5 00 	sts	0x00A5, r1	; 0x8000a5 <__TEXT_REGION_LENGTH__+0x7000a5>
     672:	10 92 a4 00 	sts	0x00A4, r1	; 0x8000a4 <__TEXT_REGION_LENGTH__+0x7000a4>

00000676 <.Loc.68>:
            while (rfid_module_teller < 2) { // 2 sec wachten, elke cycle duurt ongeveer 1 sec
     676:	c8 01       	movw	r24, r16

00000678 <.L10>:
     678:	82 30       	cpi	r24, 0x02	; 2
     67a:	91 05       	cpc	r25, r1
     67c:	2c f6       	brge	.-118    	; 0x608 <.L27>

0000067e <.Loc.71>:
                if (TIFR4 & (1 << TOV4)) {
     67e:	c8 9b       	sbis	0x19, 0	; 25
     680:	fb cf       	rjmp	.-10     	; 0x678 <.L10>

00000682 <.Loc.73>:
                    TIFR4 = (1 << TOV4);
     682:	21 e0       	ldi	r18, 0x01	; 1
     684:	29 bb       	out	0x19, r18	; 25

00000686 <.Loc.75>:
                    rfid_module_teller++;
     686:	01 96       	adiw	r24, 0x01	; 1

00000688 <.Loc.77>:
     688:	f7 cf       	rjmp	.-18     	; 0x678 <.L10>

0000068a <.L25>:
        if ((ultrasoonAfstand_R_VOOR() > VERWEG) || (ultrasoonAfstand_L_VOOR() > VERWEG)) wandenWeg++;
     68a:	0e 94 05 06 	call	0xc0a	; 0xc0a <ultrasoonAfstand_L_VOOR>

0000068e <.LVL34>:
     68e:	4f 97       	sbiw	r24, 0x1f	; 31
     690:	b0 f6       	brcc	.-84     	; 0x63e <.L14>

00000692 <.Loc.80>:
        else{
            wandenWeg = 0;
            if (afstand_L > afstand_R){
     692:	20 91 12 02 	lds	r18, 0x0212	; 0x800212 <afstand_L.7>
     696:	30 91 13 02 	lds	r19, 0x0213	; 0x800213 <afstand_L.7+0x1>
     69a:	80 91 10 02 	lds	r24, 0x0210	; 0x800210 <afstand_R.6>
     69e:	90 91 11 02 	lds	r25, 0x0211	; 0x800211 <afstand_R.6+0x1>

000006a2 <.Loc.83>:
     6a2:	82 17       	cp	r24, r18
     6a4:	93 07       	cpc	r25, r19
     6a6:	f0 f0       	brcs	.+60     	; 0x6e4 <.L28>

000006a8 <.Loc.84>:
                diffAfstand = afstand_L - afstand_R;
                motor_L(1.0);
                motor_R(percentageSteering_R(diffAfstand));
            }
            else if (afstand_R > afstand_L){
     6a8:	28 17       	cp	r18, r24
     6aa:	39 07       	cpc	r19, r25
     6ac:	c0 f5       	brcc	.+112    	; 0x71e <.L20>

000006ae <.Loc.86>:
                diffAfstand = afstand_R - afstand_L;
     6ae:	82 1b       	sub	r24, r18
     6b0:	93 0b       	sbc	r25, r19

000006b2 <.Loc.88>:
     6b2:	90 93 0f 02 	sts	0x020F, r25	; 0x80020f <diffAfstand.5+0x1>
     6b6:	80 93 0e 02 	sts	0x020E, r24	; 0x80020e <diffAfstand.5>

000006ba <.Loc.89>:
                motor_L(percentageSteering_L(diffAfstand));
     6ba:	0e 94 8d 02 	call	0x51a	; 0x51a <percentageSteering_L>

000006be <.LVL36>:
     6be:	69 83       	std	Y+1, r22	; 0x01
     6c0:	7a 83       	std	Y+2, r23	; 0x02
     6c2:	8b 83       	std	Y+3, r24	; 0x03
     6c4:	9c 83       	std	Y+4, r25	; 0x04
     6c6:	69 81       	ldd	r22, Y+1	; 0x01
     6c8:	7a 81       	ldd	r23, Y+2	; 0x02
     6ca:	8b 81       	ldd	r24, Y+3	; 0x03
     6cc:	9c 81       	ldd	r25, Y+4	; 0x04
     6ce:	0e 94 bb 01 	call	0x376	; 0x376 <motor_L>

000006d2 <.LVL37>:
                motor_R(1.0);
     6d2:	60 e0       	ldi	r22, 0x00	; 0
     6d4:	70 e0       	ldi	r23, 0x00	; 0
     6d6:	80 e8       	ldi	r24, 0x80	; 128
     6d8:	9f e3       	ldi	r25, 0x3F	; 63
     6da:	0e 94 8b 01 	call	0x316	; 0x316 <motor_R>

000006de <.L19>:
            while (rfid_module_teller < 2) { // 2 sec wachten, elke cycle duurt ongeveer 1 sec
     6de:	1a 82       	std	Y+2, r1	; 0x02
     6e0:	19 82       	std	Y+1, r1	; 0x01

000006e2 <.Loc.93>:
     6e2:	b5 cf       	rjmp	.-150    	; 0x64e <.L21>

000006e4 <.L28>:
                diffAfstand = afstand_L - afstand_R;
     6e4:	28 1b       	sub	r18, r24
     6e6:	39 0b       	sbc	r19, r25

000006e8 <.Loc.96>:
     6e8:	30 93 0f 02 	sts	0x020F, r19	; 0x80020f <diffAfstand.5+0x1>
     6ec:	20 93 0e 02 	sts	0x020E, r18	; 0x80020e <diffAfstand.5>

000006f0 <.Loc.97>:
                motor_L(1.0);
     6f0:	60 e0       	ldi	r22, 0x00	; 0
     6f2:	70 e0       	ldi	r23, 0x00	; 0
     6f4:	80 e8       	ldi	r24, 0x80	; 128
     6f6:	9f e3       	ldi	r25, 0x3F	; 63
     6f8:	0e 94 bb 01 	call	0x376	; 0x376 <motor_L>

000006fc <.LVL41>:
                motor_R(percentageSteering_R(diffAfstand));
     6fc:	80 91 0e 02 	lds	r24, 0x020E	; 0x80020e <diffAfstand.5>
     700:	90 91 0f 02 	lds	r25, 0x020F	; 0x80020f <diffAfstand.5+0x1>
     704:	0e 94 3b 02 	call	0x476	; 0x476 <percentageSteering_R>

00000708 <.LVL42>:
     708:	69 83       	std	Y+1, r22	; 0x01
     70a:	7a 83       	std	Y+2, r23	; 0x02
     70c:	8b 83       	std	Y+3, r24	; 0x03
     70e:	9c 83       	std	Y+4, r25	; 0x04
     710:	69 81       	ldd	r22, Y+1	; 0x01
     712:	7a 81       	ldd	r23, Y+2	; 0x02
     714:	8b 81       	ldd	r24, Y+3	; 0x03
     716:	9c 81       	ldd	r25, Y+4	; 0x04
     718:	0e 94 8b 01 	call	0x316	; 0x316 <motor_R>

0000071c <.LVL43>:
     71c:	e0 cf       	rjmp	.-64     	; 0x6de <.L19>

0000071e <.L20>:
            }
            else{
                motor_R(1.0);
     71e:	60 e0       	ldi	r22, 0x00	; 0
     720:	70 e0       	ldi	r23, 0x00	; 0
     722:	80 e8       	ldi	r24, 0x80	; 128
     724:	9f e3       	ldi	r25, 0x3F	; 63
     726:	0e 94 8b 01 	call	0x316	; 0x316 <motor_R>

0000072a <.LVL44>:
                motor_L(1.0);
     72a:	60 e0       	ldi	r22, 0x00	; 0
     72c:	70 e0       	ldi	r23, 0x00	; 0
     72e:	80 e8       	ldi	r24, 0x80	; 128
     730:	9f e3       	ldi	r25, 0x3F	; 63
     732:	0e 94 bb 01 	call	0x376	; 0x376 <motor_L>

00000736 <.LVL45>:
     736:	d3 cf       	rjmp	.-90     	; 0x6de <.L19>

00000738 <.L26>:
            }
        }
    }
    motor_R(1.0);
     738:	60 e0       	ldi	r22, 0x00	; 0
     73a:	70 e0       	ldi	r23, 0x00	; 0
     73c:	80 e8       	ldi	r24, 0x80	; 128
     73e:	9f e3       	ldi	r25, 0x3F	; 63
     740:	0e 94 8b 01 	call	0x316	; 0x316 <motor_R>

00000744 <.LVL47>:
    motor_L(1.0);
     744:	60 e0       	ldi	r22, 0x00	; 0
     746:	70 e0       	ldi	r23, 0x00	; 0
     748:	80 e8       	ldi	r24, 0x80	; 128
     74a:	9f e3       	ldi	r25, 0x3F	; 63
     74c:	0e 94 bb 01 	call	0x376	; 0x376 <motor_L>

00000750 <.LVL48>:
}
     750:	0f 90       	pop	r0
     752:	0f 90       	pop	r0
     754:	0f 90       	pop	r0
     756:	0f 90       	pop	r0
     758:	df 91       	pop	r29
     75a:	cf 91       	pop	r28
     75c:	1f 91       	pop	r17
     75e:	0f 91       	pop	r16

00000760 <.Loc.104>:
     760:	08 95       	ret

00000762 <lijnInterrupt>:

int lijnInterrupt(int action){ /// TEMP ///
     762:	28 2f       	mov	r18, r24
     764:	39 2f       	mov	r19, r25

00000766 <.Loc.107>:
    static int lijnDetecteerd = FALSE;
    if(action == WRITE){lijnDetecteerd = TRUE;}
     766:	21 30       	cpi	r18, 0x01	; 1
     768:	31 05       	cpc	r19, r1
     76a:	41 f0       	breq	.+16     	; 0x77c <.L32>

0000076c <.Loc.110>:
    else if (action == RESET){lijnDetecteerd = FALSE;}
     76c:	22 30       	cpi	r18, 0x02	; 2
     76e:	31 05       	cpc	r19, r1
     770:	61 f0       	breq	.+24     	; 0x78a <.L33>

00000772 <.L31>:
    return lijnDetecteerd;
}
     772:	80 91 0c 02 	lds	r24, 0x020C	; 0x80020c <lijnDetecteerd.4>
     776:	90 91 0d 02 	lds	r25, 0x020D	; 0x80020d <lijnDetecteerd.4+0x1>
     77a:	08 95       	ret

0000077c <.L32>:
    if(action == WRITE){lijnDetecteerd = TRUE;}
     77c:	81 e0       	ldi	r24, 0x01	; 1
     77e:	90 e0       	ldi	r25, 0x00	; 0

00000780 <.Loc.116>:
     780:	90 93 0d 02 	sts	0x020D, r25	; 0x80020d <lijnDetecteerd.4+0x1>
     784:	80 93 0c 02 	sts	0x020C, r24	; 0x80020c <lijnDetecteerd.4>
     788:	f4 cf       	rjmp	.-24     	; 0x772 <.L31>

0000078a <.L33>:
    else if (action == RESET){lijnDetecteerd = FALSE;}
     78a:	10 92 0d 02 	sts	0x020D, r1	; 0x80020d <lijnDetecteerd.4+0x1>
     78e:	10 92 0c 02 	sts	0x020C, r1	; 0x80020c <lijnDetecteerd.4>
     792:	ef cf       	rjmp	.-34     	; 0x772 <.L31>

00000794 <padNavigerenKant>:


void padNavigerenKant(int kant, int richting){
     794:	ef 92       	push	r14
     796:	ff 92       	push	r15
     798:	0f 93       	push	r16
     79a:	1f 93       	push	r17
     79c:	cf 93       	push	r28
     79e:	df 93       	push	r29
     7a0:	00 d0       	rcall	.+0      	; 0x7a2 <L0^A>

000007a2 <L0^A>:
     7a2:	00 d0       	rcall	.+0      	; 0x7a4 <L0^A>

000007a4 <L0^A>:
     7a4:	cd b7       	in	r28, 0x3d	; 61
     7a6:	de b7       	in	r29, 0x3e	; 62
     7a8:	08 2f       	mov	r16, r24
     7aa:	19 2f       	mov	r17, r25
     7ac:	6d 83       	std	Y+5, r22	; 0x05
     7ae:	79 83       	std	Y+1, r23	; 0x01

000007b0 <.Loc.121>:
    static unsigned int afstandVoor = 0; // L
    static unsigned int afstandAchter = 0; // R
    static int bijGat = FALSE;
    int bezig = TRUE;

    motor_config(richting, LINKS);
     7b0:	61 e0       	ldi	r22, 0x01	; 1
     7b2:	70 e0       	ldi	r23, 0x00	; 0

000007b4 <.Loc.127>:
     7b4:	8d 81       	ldd	r24, Y+5	; 0x05

000007b6 <.Loc.128>:
     7b6:	99 81       	ldd	r25, Y+1	; 0x01
     7b8:	0e 94 eb 01 	call	0x3d6	; 0x3d6 <motor_config>

000007bc <.LVL59>:
    motor_config(richting, RECHTS);
     7bc:	60 e0       	ldi	r22, 0x00	; 0
     7be:	70 e0       	ldi	r23, 0x00	; 0
     7c0:	8d 81       	ldd	r24, Y+5	; 0x05
     7c2:	99 81       	ldd	r25, Y+1	; 0x01
     7c4:	0e 94 eb 01 	call	0x3d6	; 0x3d6 <motor_config>

000007c8 <.LVL60>:

    motor_L(1.0);
     7c8:	60 e0       	ldi	r22, 0x00	; 0
     7ca:	70 e0       	ldi	r23, 0x00	; 0
     7cc:	80 e8       	ldi	r24, 0x80	; 128
     7ce:	9f e3       	ldi	r25, 0x3F	; 63
     7d0:	0e 94 bb 01 	call	0x376	; 0x376 <motor_L>

000007d4 <.LVL61>:
    motor_R(1.0);
     7d4:	60 e0       	ldi	r22, 0x00	; 0
     7d6:	70 e0       	ldi	r23, 0x00	; 0
     7d8:	80 e8       	ldi	r24, 0x80	; 128
     7da:	9f e3       	ldi	r25, 0x3F	; 63
     7dc:	0e 94 8b 01 	call	0x316	; 0x316 <motor_R>

000007e0 <.LVL62>:

    while (bezig){
     7e0:	ee 24       	eor	r14, r14
     7e2:	e3 94       	inc	r14
     7e4:	f1 2c       	mov	r15, r1
     7e6:	9e c0       	rjmp	.+316    	; 0x924 <.L42>

000007e8 <.L50>:
        if(kant == RECHTS){
            afstandVoor = ultrasoonAfstand_L_VOOR();
     7e8:	0e 94 05 06 	call	0xc0a	; 0xc0a <ultrasoonAfstand_L_VOOR>

000007ec <.LVL63>:
     7ec:	90 93 0b 02 	sts	0x020B, r25	; 0x80020b <afstandVoor.3+0x1>
     7f0:	80 93 0a 02 	sts	0x020A, r24	; 0x80020a <afstandVoor.3>

000007f4 <.Loc.137>:
            afstandAchter = ultrasoonAfstand_L_ACHTER();
     7f4:	0e 94 c9 06 	call	0xd92	; 0xd92 <ultrasoonAfstand_L_ACHTER>

000007f8 <.LVL64>:
     7f8:	90 93 09 02 	sts	0x0209, r25	; 0x800209 <afstandAchter.2+0x1>
     7fc:	80 93 08 02 	sts	0x0208, r24	; 0x800208 <afstandAchter.2>

00000800 <.Loc.140>:
            int afstandRechts = ultrasoonAfstand_R_VOOR();
     800:	0e 94 a3 05 	call	0xb46	; 0xb46 <ultrasoonAfstand_R_VOOR>

00000804 <.LVL65>:
     804:	28 2f       	mov	r18, r24
     806:	39 2f       	mov	r19, r25

00000808 <.Loc.142>:
            if (bijGat == FALSE && afstandRechts > VERWEG){bijGat = TRUE;}
     808:	80 91 06 02 	lds	r24, 0x0206	; 0x800206 <bijGat.1>
     80c:	90 91 07 02 	lds	r25, 0x0207	; 0x800207 <bijGat.1+0x1>
     810:	9e 83       	std	Y+6, r25	; 0x06
     812:	8d 83       	std	Y+5, r24	; 0x05

00000814 <.Loc.144>:
     814:	89 2b       	or	r24, r25
     816:	69 f4       	brne	.+26     	; 0x832 <.L36>

00000818 <.Loc.145>:
     818:	2f 31       	cpi	r18, 0x1F	; 31
     81a:	31 05       	cpc	r19, r1
     81c:	0c f4       	brge	.+2      	; 0x820 <.Loc.146>

0000081e <L0^A>:
     81e:	45 c0       	rjmp	.+138    	; 0x8aa <.L43>

00000820 <.Loc.146>:
     820:	81 e0       	ldi	r24, 0x01	; 1
     822:	90 e0       	ldi	r25, 0x00	; 0
     824:	90 93 07 02 	sts	0x0207, r25	; 0x800207 <bijGat.1+0x1>
     828:	80 93 06 02 	sts	0x0206, r24	; 0x800206 <bijGat.1>
     82c:	9e 83       	std	Y+6, r25	; 0x06
     82e:	8d 83       	std	Y+5, r24	; 0x05
     830:	83 c0       	rjmp	.+262    	; 0x938 <.L37>

00000832 <.L36>:
            else if(bijGat == TRUE && afstandRechts < VERWEG){
     832:	8d 81       	ldd	r24, Y+5	; 0x05
     834:	9e 81       	ldd	r25, Y+6	; 0x06
     836:	01 97       	sbiw	r24, 0x01	; 1
     838:	e9 f5       	brne	.+122    	; 0x8b4 <.L44>

0000083a <.Loc.150>:
     83a:	2e 31       	cpi	r18, 0x1E	; 30
     83c:	31 05       	cpc	r19, r1
     83e:	0c f0       	brlt	.+2      	; 0x842 <.Loc.151>

00000840 <L0^A>:
     840:	7b c0       	rjmp	.+246    	; 0x938 <.L37>

00000842 <.Loc.151>:
                EIMSK |= (1 << INT4);
     842:	ec 9a       	sbi	0x1d, 4	; 29

00000844 <.Loc.153>:
                bezig = FALSE;
     844:	1e 83       	std	Y+6, r17	; 0x06
     846:	0d 83       	std	Y+5, r16	; 0x05
     848:	77 c0       	rjmp	.+238    	; 0x938 <.L37>

0000084a <.L51>:
            }

        }
        else if(kant == LINKS){
            afstandVoor = ultrasoonAfstand_R_VOOR();
     84a:	0e 94 a3 05 	call	0xb46	; 0xb46 <ultrasoonAfstand_R_VOOR>

0000084e <.LVL69>:
     84e:	90 93 0b 02 	sts	0x020B, r25	; 0x80020b <afstandVoor.3+0x1>
     852:	80 93 0a 02 	sts	0x020A, r24	; 0x80020a <afstandVoor.3>

00000856 <.Loc.159>:
            afstandAchter = ultrasoonAfstand_R_ACHTER();
     856:	0e 94 67 06 	call	0xcce	; 0xcce <ultrasoonAfstand_R_ACHTER>

0000085a <.LVL70>:
     85a:	90 93 09 02 	sts	0x0209, r25	; 0x800209 <afstandAchter.2+0x1>
     85e:	80 93 08 02 	sts	0x0208, r24	; 0x800208 <afstandAchter.2>

00000862 <.Loc.162>:
            int afstandLinks = ultrasoonAfstand_L_VOOR();
     862:	0e 94 05 06 	call	0xc0a	; 0xc0a <ultrasoonAfstand_L_VOOR>

00000866 <.LVL71>:
     866:	28 2f       	mov	r18, r24
     868:	39 2f       	mov	r19, r25

0000086a <.Loc.164>:
            if (bijGat == FALSE && afstandLinks > VERWEG){bijGat = TRUE;}
     86a:	80 91 06 02 	lds	r24, 0x0206	; 0x800206 <bijGat.1>
     86e:	90 91 07 02 	lds	r25, 0x0207	; 0x800207 <bijGat.1+0x1>
     872:	9e 83       	std	Y+6, r25	; 0x06
     874:	8d 83       	std	Y+5, r24	; 0x05

00000876 <.Loc.166>:
     876:	89 2b       	or	r24, r25
     878:	61 f4       	brne	.+24     	; 0x892 <.L38>

0000087a <.Loc.167>:
     87a:	2f 31       	cpi	r18, 0x1F	; 31
     87c:	31 05       	cpc	r19, r1
     87e:	fc f0       	brlt	.+62     	; 0x8be <.L46>

00000880 <.Loc.168>:
     880:	81 e0       	ldi	r24, 0x01	; 1
     882:	90 e0       	ldi	r25, 0x00	; 0
     884:	90 93 07 02 	sts	0x0207, r25	; 0x800207 <bijGat.1+0x1>
     888:	80 93 06 02 	sts	0x0206, r24	; 0x800206 <bijGat.1>
     88c:	1e 83       	std	Y+6, r17	; 0x06
     88e:	0d 83       	std	Y+5, r16	; 0x05
     890:	53 c0       	rjmp	.+166    	; 0x938 <.L37>

00000892 <.L38>:
            else if(bijGat == TRUE && afstandLinks < VERWEG){
     892:	8d 81       	ldd	r24, Y+5	; 0x05
     894:	9e 81       	ldd	r25, Y+6	; 0x06
     896:	01 97       	sbiw	r24, 0x01	; 1
     898:	a9 f4       	brne	.+42     	; 0x8c4 <.L47>

0000089a <.Loc.172>:
     89a:	2e 31       	cpi	r18, 0x1E	; 30
     89c:	31 05       	cpc	r19, r1
     89e:	0c f0       	brlt	.+2      	; 0x8a2 <.Loc.173>

000008a0 <L0^A>:
     8a0:	4b c0       	rjmp	.+150    	; 0x938 <.L37>

000008a2 <.Loc.173>:
                EIMSK |= (1 << INT4);
     8a2:	ec 9a       	sbi	0x1d, 4	; 29

000008a4 <.Loc.175>:
                bezig = FALSE;
     8a4:	1e 82       	std	Y+6, r1	; 0x06
     8a6:	1d 82       	std	Y+5, r1	; 0x05
     8a8:	47 c0       	rjmp	.+142    	; 0x938 <.L37>

000008aa <.L43>:
     8aa:	81 e0       	ldi	r24, 0x01	; 1
     8ac:	90 e0       	ldi	r25, 0x00	; 0
     8ae:	9e 83       	std	Y+6, r25	; 0x06
     8b0:	8d 83       	std	Y+5, r24	; 0x05
     8b2:	42 c0       	rjmp	.+132    	; 0x938 <.L37>

000008b4 <.L44>:
     8b4:	81 e0       	ldi	r24, 0x01	; 1
     8b6:	90 e0       	ldi	r25, 0x00	; 0
     8b8:	9e 83       	std	Y+6, r25	; 0x06
     8ba:	8d 83       	std	Y+5, r24	; 0x05
     8bc:	3d c0       	rjmp	.+122    	; 0x938 <.L37>

000008be <.L46>:
     8be:	1e 83       	std	Y+6, r17	; 0x06
     8c0:	0d 83       	std	Y+5, r16	; 0x05
     8c2:	3a c0       	rjmp	.+116    	; 0x938 <.L37>

000008c4 <.L47>:
     8c4:	1e 83       	std	Y+6, r17	; 0x06
     8c6:	0d 83       	std	Y+5, r16	; 0x05
     8c8:	37 c0       	rjmp	.+110    	; 0x938 <.L37>

000008ca <.L52>:
            }
        }

        if (afstandVoor > afstandAchter){
            diffAfstand = afstandVoor - afstandAchter;
     8ca:	28 1b       	sub	r18, r24
     8cc:	39 0b       	sbc	r19, r25

000008ce <.Loc.182>:
     8ce:	30 93 05 02 	sts	0x0205, r19	; 0x800205 <diffAfstand.0+0x1>
     8d2:	20 93 04 02 	sts	0x0204, r18	; 0x800204 <diffAfstand.0>

000008d6 <.Loc.183>:
            motor_L(1.0);
     8d6:	60 e0       	ldi	r22, 0x00	; 0
     8d8:	70 e0       	ldi	r23, 0x00	; 0
     8da:	80 e8       	ldi	r24, 0x80	; 128
     8dc:	9f e3       	ldi	r25, 0x3F	; 63
     8de:	0e 94 bb 01 	call	0x376	; 0x376 <motor_L>

000008e2 <.LVL77>:
            motor_R(percentageSteering_R(diffAfstand));
     8e2:	80 91 04 02 	lds	r24, 0x0204	; 0x800204 <diffAfstand.0>
     8e6:	90 91 05 02 	lds	r25, 0x0205	; 0x800205 <diffAfstand.0+0x1>
     8ea:	0e 94 3b 02 	call	0x476	; 0x476 <percentageSteering_R>

000008ee <.LVL78>:
     8ee:	69 83       	std	Y+1, r22	; 0x01
     8f0:	7a 83       	std	Y+2, r23	; 0x02
     8f2:	8b 83       	std	Y+3, r24	; 0x03
     8f4:	9c 83       	std	Y+4, r25	; 0x04
     8f6:	69 81       	ldd	r22, Y+1	; 0x01
     8f8:	7a 81       	ldd	r23, Y+2	; 0x02
     8fa:	8b 81       	ldd	r24, Y+3	; 0x03
     8fc:	9c 81       	ldd	r25, Y+4	; 0x04
     8fe:	0e 94 8b 01 	call	0x316	; 0x316 <motor_R>

00000902 <.LVL79>:
     902:	0c c0       	rjmp	.+24     	; 0x91c <.L40>

00000904 <.L41>:
            diffAfstand = afstandAchter - afstandVoor;
            motor_L(percentageSteering_L(diffAfstand));
            motor_R(1.0);
        }
        else{
            motor_R(1.0);
     904:	60 e0       	ldi	r22, 0x00	; 0
     906:	70 e0       	ldi	r23, 0x00	; 0
     908:	80 e8       	ldi	r24, 0x80	; 128
     90a:	9f e3       	ldi	r25, 0x3F	; 63
     90c:	0e 94 8b 01 	call	0x316	; 0x316 <motor_R>

00000910 <.LVL80>:
            motor_L(1.0);
     910:	60 e0       	ldi	r22, 0x00	; 0
     912:	70 e0       	ldi	r23, 0x00	; 0
     914:	80 e8       	ldi	r24, 0x80	; 128
     916:	9f e3       	ldi	r25, 0x3F	; 63
     918:	0e 94 bb 01 	call	0x376	; 0x376 <motor_L>

0000091c <.L40>:
    while (bezig){
     91c:	8d 81       	ldd	r24, Y+5	; 0x05
     91e:	9e 81       	ldd	r25, Y+6	; 0x06
     920:	89 2b       	or	r24, r25
     922:	91 f1       	breq	.+100    	; 0x988 <.L49>

00000924 <.L42>:
        if(kant == RECHTS){
     924:	01 15       	cp	r16, r1
     926:	11 05       	cpc	r17, r1
     928:	09 f4       	brne	.+2      	; 0x92c <.Loc.190>

0000092a <L0^A>:
     92a:	5e cf       	rjmp	.-324    	; 0x7e8 <.L50>

0000092c <.Loc.190>:
        else if(kant == LINKS){
     92c:	01 30       	cpi	r16, 0x01	; 1
     92e:	11 05       	cpc	r17, r1
     930:	09 f4       	brne	.+2      	; 0x934 <L0^A+0x2>

00000932 <L0^A>:
     932:	8b cf       	rjmp	.-234    	; 0x84a <.L51>
     934:	ed 82       	std	Y+5, r14	; 0x05
     936:	fe 82       	std	Y+6, r15	; 0x06

00000938 <.L37>:
        if (afstandVoor > afstandAchter){
     938:	20 91 0a 02 	lds	r18, 0x020A	; 0x80020a <afstandVoor.3>
     93c:	30 91 0b 02 	lds	r19, 0x020B	; 0x80020b <afstandVoor.3+0x1>
     940:	80 91 08 02 	lds	r24, 0x0208	; 0x800208 <afstandAchter.2>
     944:	90 91 09 02 	lds	r25, 0x0209	; 0x800209 <afstandAchter.2+0x1>

00000948 <.Loc.195>:
     948:	82 17       	cp	r24, r18
     94a:	93 07       	cpc	r25, r19
     94c:	08 f4       	brcc	.+2      	; 0x950 <.Loc.196>

0000094e <L0^A>:
     94e:	bd cf       	rjmp	.-134    	; 0x8ca <.L52>

00000950 <.Loc.196>:
        else if (afstandAchter > afstandVoor){
     950:	28 17       	cp	r18, r24
     952:	39 07       	cpc	r19, r25
     954:	b8 f6       	brcc	.-82     	; 0x904 <.L41>

00000956 <.Loc.198>:
            diffAfstand = afstandAchter - afstandVoor;
     956:	82 1b       	sub	r24, r18
     958:	93 0b       	sbc	r25, r19

0000095a <.Loc.200>:
     95a:	90 93 05 02 	sts	0x0205, r25	; 0x800205 <diffAfstand.0+0x1>
     95e:	80 93 04 02 	sts	0x0204, r24	; 0x800204 <diffAfstand.0>

00000962 <.Loc.201>:
            motor_L(percentageSteering_L(diffAfstand));
     962:	0e 94 8d 02 	call	0x51a	; 0x51a <percentageSteering_L>

00000966 <.LVL84>:
     966:	69 83       	std	Y+1, r22	; 0x01
     968:	7a 83       	std	Y+2, r23	; 0x02
     96a:	8b 83       	std	Y+3, r24	; 0x03
     96c:	9c 83       	std	Y+4, r25	; 0x04
     96e:	69 81       	ldd	r22, Y+1	; 0x01
     970:	7a 81       	ldd	r23, Y+2	; 0x02
     972:	8b 81       	ldd	r24, Y+3	; 0x03
     974:	9c 81       	ldd	r25, Y+4	; 0x04
     976:	0e 94 bb 01 	call	0x376	; 0x376 <motor_L>

0000097a <.LVL85>:
            motor_R(1.0);
     97a:	60 e0       	ldi	r22, 0x00	; 0
     97c:	70 e0       	ldi	r23, 0x00	; 0
     97e:	80 e8       	ldi	r24, 0x80	; 128
     980:	9f e3       	ldi	r25, 0x3F	; 63
     982:	0e 94 8b 01 	call	0x316	; 0x316 <motor_R>

00000986 <.LVL86>:
     986:	ca cf       	rjmp	.-108    	; 0x91c <.L40>

00000988 <.L49>:
        }
    }
}
     988:	0f 90       	pop	r0
     98a:	0f 90       	pop	r0
     98c:	0f 90       	pop	r0
     98e:	0f 90       	pop	r0
     990:	0f 90       	pop	r0
     992:	0f 90       	pop	r0
     994:	df 91       	pop	r29
     996:	cf 91       	pop	r28
     998:	1f 91       	pop	r17
     99a:	0f 91       	pop	r16
     99c:	ff 90       	pop	r15
     99e:	ef 90       	pop	r14
     9a0:	08 95       	ret

000009a2 <kerenR>:

void kerenR(void)
{
     9a2:	af 92       	push	r10
     9a4:	bf 92       	push	r11
     9a6:	cf 92       	push	r12
     9a8:	df 92       	push	r13
     9aa:	ff 92       	push	r15
     9ac:	0f 93       	push	r16
     9ae:	1f 93       	push	r17
     9b0:	cf 93       	push	r28
     9b2:	df 93       	push	r29

000009b4 <.Loc.205>:
    int teller = 0;
    int count = 0;
    int temp = 0;
    while(temp == 0)
    {
    TCNT2 = 6;
     9b4:	02 eb       	ldi	r16, 0xB2	; 178
     9b6:	10 e0       	ldi	r17, 0x00	; 0
     9b8:	c6 e0       	ldi	r28, 0x06	; 6

000009ba <.Loc.210>:
    TCCR2A = 0;
     9ba:	0f 2e       	mov	r0, r31
     9bc:	f0 eb       	ldi	r31, 0xB0	; 176
     9be:	af 2e       	mov	r10, r31
     9c0:	b1 2c       	mov	r11, r1
     9c2:	f0 2d       	mov	r31, r0

000009c4 <.Loc.211>:
    TCCR2B = (0 << CS22)|(1 << CS21) | (1 << CS20);
     9c4:	0f 2e       	mov	r0, r31
     9c6:	f1 eb       	ldi	r31, 0xB1	; 177
     9c8:	cf 2e       	mov	r12, r31
     9ca:	d1 2c       	mov	r13, r1
     9cc:	f0 2d       	mov	r31, r0
     9ce:	0f 2e       	mov	r0, r31
     9d0:	f3 e0       	ldi	r31, 0x03	; 3
     9d2:	ff 2e       	mov	r15, r31
     9d4:	f0 2d       	mov	r31, r0

000009d6 <.Loc.212>:
            {
                TIFR2 = (1 << TOV2);
                TCNT2 = 6;
                break;
            }
            TIFR2 = (1 << TOV2);
     9d6:	d1 e0       	ldi	r29, 0x01	; 1

000009d8 <.Loc.213>:
    while(temp == 0)
     9d8:	20 c0       	rjmp	.+64     	; 0xa1a <.L54>

000009da <.L65>:
                TIFR2 = (1 << TOV2);
     9da:	d7 bb       	out	0x17, r29	; 23

000009dc <.Loc.216>:
                TCNT2 = 6;
     9dc:	f8 01       	movw	r30, r16
     9de:	c0 83       	st	Z, r28

000009e0 <.Loc.218>:
            TCNT2 = 6;
        }
    }
    motor_L(1);
     9e0:	60 e0       	ldi	r22, 0x00	; 0
     9e2:	70 e0       	ldi	r23, 0x00	; 0
     9e4:	80 e8       	ldi	r24, 0x80	; 128
     9e6:	9f e3       	ldi	r25, 0x3F	; 63
     9e8:	0e 94 bb 01 	call	0x376	; 0x376 <motor_L>

000009ec <.LVL90>:
    motor_R(1);
     9ec:	60 e0       	ldi	r22, 0x00	; 0
     9ee:	70 e0       	ldi	r23, 0x00	; 0
     9f0:	80 e8       	ldi	r24, 0x80	; 128
     9f2:	9f e3       	ldi	r25, 0x3F	; 63
     9f4:	0e 94 8b 01 	call	0x316	; 0x316 <motor_R>

000009f8 <.LVL91>:

    TCNT2 = 6;
     9f8:	f8 01       	movw	r30, r16
     9fa:	c0 83       	st	Z, r28

000009fc <.Loc.223>:
     9fc:	80 e9       	ldi	r24, 0x90	; 144
     9fe:	91 e0       	ldi	r25, 0x01	; 1

00000a00 <.L59>:
    count = 0;
    while (1)
    {
        if (TIFR2 & (1 << TOV2))
     a00:	b8 9b       	sbis	0x17, 0	; 23
     a02:	fe cf       	rjmp	.-4      	; 0xa00 <.L59>

00000a04 <.Loc.228>:
        {
            if (++count >= 400)     ///WP COUNT -> 300
     a04:	01 97       	sbiw	r24, 0x01	; 1

00000a06 <.Loc.230>:
     a06:	00 97       	sbiw	r24, 0x00	; 0
     a08:	21 f0       	breq	.+8      	; 0xa12 <.L60>

00000a0a <.Loc.231>:
            {
                break;
            }
            TIFR2 = (1 << TOV2);
     a0a:	d7 bb       	out	0x17, r29	; 23

00000a0c <.Loc.233>:
            TCNT2 = 6;
     a0c:	f8 01       	movw	r30, r16
     a0e:	c0 83       	st	Z, r28
     a10:	f7 cf       	rjmp	.-18     	; 0xa00 <.L59>

00000a12 <.L60>:
        }
    }
    teller++;
    if (ultrasoonAfstand_L_VOOR() < 20) {temp = 1;}
     a12:	0e 94 05 06 	call	0xc0a	; 0xc0a <ultrasoonAfstand_L_VOOR>

00000a16 <.LVL97>:
     a16:	44 97       	sbiw	r24, 0x14	; 20
     a18:	e0 f0       	brcs	.+56     	; 0xa52 <.L64>

00000a1a <.L54>:
    TCNT2 = 6;
     a1a:	f8 01       	movw	r30, r16
     a1c:	c0 83       	st	Z, r28

00000a1e <.Loc.242>:
    TCCR2A = 0;
     a1e:	f5 01       	movw	r30, r10
     a20:	10 82       	st	Z, r1

00000a22 <.Loc.244>:
    TCCR2B = (0 << CS22)|(1 << CS21) | (1 << CS20);
     a22:	f6 01       	movw	r30, r12
     a24:	f0 82       	st	Z, r15

00000a26 <.Loc.246>:
    motor_L(0);
     a26:	60 e0       	ldi	r22, 0x00	; 0
     a28:	70 e0       	ldi	r23, 0x00	; 0
     a2a:	cb 01       	movw	r24, r22
     a2c:	0e 94 bb 01 	call	0x376	; 0x376 <motor_L>

00000a30 <.LVL99>:
    motor_R(1);
     a30:	60 e0       	ldi	r22, 0x00	; 0
     a32:	70 e0       	ldi	r23, 0x00	; 0
     a34:	80 e8       	ldi	r24, 0x80	; 128
     a36:	9f e3       	ldi	r25, 0x3F	; 63
     a38:	0e 94 8b 01 	call	0x316	; 0x316 <motor_R>

00000a3c <.LVL100>:
     a3c:	84 ef       	ldi	r24, 0xF4	; 244
     a3e:	91 e0       	ldi	r25, 0x01	; 1

00000a40 <.L55>:
        if (TIFR2 & (1 << TOV2))
     a40:	b8 9b       	sbis	0x17, 0	; 23
     a42:	fe cf       	rjmp	.-4      	; 0xa40 <.L55>

00000a44 <.Loc.253>:
            if (++count >= 500)
     a44:	01 97       	sbiw	r24, 0x01	; 1

00000a46 <.Loc.255>:
     a46:	00 97       	sbiw	r24, 0x00	; 0
     a48:	41 f2       	breq	.-112    	; 0x9da <.L65>

00000a4a <.Loc.256>:
            TIFR2 = (1 << TOV2);
     a4a:	d7 bb       	out	0x17, r29	; 23

00000a4c <.Loc.258>:
            TCNT2 = 6;
     a4c:	f8 01       	movw	r30, r16
     a4e:	c0 83       	st	Z, r28
     a50:	f7 cf       	rjmp	.-18     	; 0xa40 <.L55>

00000a52 <.L64>:
    //if (ultrasoonAfstand_R() < 20) {temp = 1;}
    }
}
     a52:	df 91       	pop	r29
     a54:	cf 91       	pop	r28
     a56:	1f 91       	pop	r17
     a58:	0f 91       	pop	r16
     a5a:	ff 90       	pop	r15
     a5c:	df 90       	pop	r13
     a5e:	cf 90       	pop	r12
     a60:	bf 90       	pop	r11
     a62:	af 90       	pop	r10
     a64:	08 95       	ret

00000a66 <rfid_module>:
#include "rfid_module_lib.h"
#include "us_sensor_lib.h"


void rfid_module(void) {
    while ((NEXT_MOD_PIN & (1 << NEXT_MOD)) == 0) {
     a66:	91 9b       	sbis	0x12, 1	; 18
     a68:	fe cf       	rjmp	.-4      	; 0xa66 <rfid_module>

00000a6a <.Loc.3>:
        // niks doen
    }
    acknowledge_agv(); // acknowledgen naar module dat we gaan starten
     a6a:	0e 94 95 00 	call	0x12a	; 0x12a <acknowledge_agv>

00000a6e <.LVL0>:
    //padNavigerenNorm();
    NEXT_AGV_PORT |= (1 << NEXT_AGV); // bocht bereikt
     a6e:	40 9a       	sbi	0x08, 0	; 8

00000a70 <.Loc.6>:
    kerenR(); // bocht
     a70:	0e 94 d1 04 	call	0x9a2	; 0x9a2 <kerenR>

00000a74 <.LVL1>:
    /// stoppen in vak
}
     a74:	08 95       	ret

00000a76 <init_test>:



void init_test(void){

    DDRB |= (1 << PB7);
     a76:	27 9a       	sbi	0x04, 7	; 4

00000a78 <.Loc.3>:
    DDRB |= (1 << PB6);
     a78:	26 9a       	sbi	0x04, 6	; 4

00000a7a <.Loc.5>:

    PORTB |= (1 << PB7); // uit
     a7a:	2f 9a       	sbi	0x05, 7	; 5

00000a7c <.Loc.7>:
    PORTB |= (1 << PB6); // uit
     a7c:	2e 9a       	sbi	0x05, 6	; 5

00000a7e <.Loc.10>:

//    DDRB |= (1 << PB5);
//    DDRB |= (1 << PB4);

    DDRF &= ~(1 << PF1);
     a7e:	81 98       	cbi	0x10, 1	; 16

00000a80 <.Loc.11>:
    DDRF &= ~(1 << PF2);
     a80:	82 98       	cbi	0x10, 2	; 16

00000a82 <.Loc.13>:
    DDRF &= ~(1 << PF3);
     a82:	83 98       	cbi	0x10, 3	; 16

00000a84 <.Loc.15>:
}
     a84:	08 95       	ret

00000a86 <test>:
void test(void){

    //static int pressed = 0;
    static int released = 1;

    if (((PINF & (1 << PF1)) != 0)&& released == 0)   // Schakkel check S2 Losgelaten
     a86:	79 9b       	sbis	0x0f, 1	; 15
     a88:	1a c0       	rjmp	.+52     	; 0xabe <.L3>

00000a8a <.Loc.20>:
     a8a:	80 91 02 02 	lds	r24, 0x0202	; 0x800202 <released.1>
     a8e:	90 91 03 02 	lds	r25, 0x0203	; 0x800203 <released.1+0x1>
     a92:	89 2b       	or	r24, r25
     a94:	a1 f4       	brne	.+40     	; 0xabe <.L3>

00000a96 <.Loc.21>:
    {
        PORTB |= (1 << PB7);
     a96:	2f 9a       	sbi	0x05, 7	; 5

00000a98 <.Loc.23>:
        PORTB |= (1 << PB6);      // Led Groen off
     a98:	2e 9a       	sbi	0x05, 6	; 5

00000a9a <.LBB8>:
     a9a:	2f ef       	ldi	r18, 0xFF	; 255
     a9c:	86 e7       	ldi	r24, 0x76	; 118
     a9e:	91 e0       	ldi	r25, 0x01	; 1

00000aa0 <.L1^B1>:
     aa0:	21 50       	subi	r18, 0x01	; 1
     aa2:	80 40       	sbci	r24, 0x00	; 0
     aa4:	90 40       	sbci	r25, 0x00	; 0
     aa6:	e1 f7       	brne	.-8      	; 0xaa0 <.L1^B1>
     aa8:	00 c0       	rjmp	.+0      	; 0xaaa <L0^A>

00000aaa <L0^A>:
	...

00000aac <.LBE8>:
        _delay_ms(30);
        released = 1;
     aac:	81 e0       	ldi	r24, 0x01	; 1
     aae:	90 e0       	ldi	r25, 0x00	; 0
     ab0:	90 93 03 02 	sts	0x0203, r25	; 0x800203 <released.1+0x1>
     ab4:	80 93 02 02 	sts	0x0202, r24	; 0x800202 <released.1>

00000ab8 <.Loc.36>:
    }

    if (((PINF & (1 << PF1)) == 0) && released == 1)   // Schakel check s2 Ingedrukt
     ab8:	79 9b       	sbis	0x0f, 1	; 15
     aba:	0a c0       	rjmp	.+20     	; 0xad0 <.L4>
     abc:	08 95       	ret

00000abe <.L3>:
     abe:	79 99       	sbic	0x0f, 1	; 15
     ac0:	06 c0       	rjmp	.+12     	; 0xace <.L2>

00000ac2 <.Loc.40>:
     ac2:	80 91 02 02 	lds	r24, 0x0202	; 0x800202 <released.1>
     ac6:	90 91 03 02 	lds	r25, 0x0203	; 0x800203 <released.1+0x1>
     aca:	01 97       	sbiw	r24, 0x01	; 1
     acc:	09 f0       	breq	.+2      	; 0xad0 <.L4>

00000ace <.L2>:
        PORTB &= ~(1 << PB7);
        PORTB &= ~(1 << PB6);       // Led Groen on
        _delay_ms(100);
        released = 0;
    }
}
     ace:	08 95       	ret

00000ad0 <.L4>:
        PORTB &= ~(1 << PB7);
     ad0:	2f 98       	cbi	0x05, 7	; 5

00000ad2 <.Loc.44>:
        PORTB &= ~(1 << PB6);       // Led Groen on
     ad2:	2e 98       	cbi	0x05, 6	; 5

00000ad4 <.LBB10>:
     ad4:	2f ef       	ldi	r18, 0xFF	; 255
     ad6:	81 ee       	ldi	r24, 0xE1	; 225
     ad8:	94 e0       	ldi	r25, 0x04	; 4

00000ada <.L1^B2>:
     ada:	21 50       	subi	r18, 0x01	; 1
     adc:	80 40       	sbci	r24, 0x00	; 0
     ade:	90 40       	sbci	r25, 0x00	; 0
     ae0:	e1 f7       	brne	.-8      	; 0xada <.L1^B2>
     ae2:	00 c0       	rjmp	.+0      	; 0xae4 <L0^A>

00000ae4 <L0^A>:
	...

00000ae6 <.LBE10>:
        released = 0;
     ae6:	10 92 03 02 	sts	0x0203, r1	; 0x800203 <released.1+0x1>
     aea:	10 92 02 02 	sts	0x0202, r1	; 0x800202 <released.1>

00000aee <.Loc.57>:
}
     aee:	ef cf       	rjmp	.-34     	; 0xace <.L2>

00000af0 <test_AGV_ontvang>:
}*/


void test_AGV_ontvang(void){ //agv
    static int test = 1;
    if ((NEXT_MOD_PIN & (1 << NEXT_MOD)) != 0 && test == 1){ //input vanuit module
     af0:	91 9b       	sbis	0x12, 1	; 18
     af2:	06 c0       	rjmp	.+12     	; 0xb00 <.L7>

00000af4 <.Loc.62>:
     af4:	80 91 00 02 	lds	r24, 0x0200	; 0x800200 <test.0>
     af8:	90 91 01 02 	lds	r25, 0x0201	; 0x800201 <test.0+0x1>
     afc:	01 97       	sbiw	r24, 0x01	; 1
     afe:	81 f0       	breq	.+32     	; 0xb20 <.L9>

00000b00 <.L7>:
        acknowledge_agv();

        //ACK_AGV_PORT |= (1 << ACK_AGV);
        test = 0;
    }
    else if((NEXT_MOD_PIN & (1 << NEXT_MOD)) == 0 && test == 0){
     b00:	91 99       	sbic	0x12, 1	; 18
     b02:	0d c0       	rjmp	.+26     	; 0xb1e <.L6>

00000b04 <.Loc.65>:
     b04:	80 91 00 02 	lds	r24, 0x0200	; 0x800200 <test.0>
     b08:	90 91 01 02 	lds	r25, 0x0201	; 0x800201 <test.0+0x1>
     b0c:	89 2b       	or	r24, r25
     b0e:	39 f4       	brne	.+14     	; 0xb1e <.L6>

00000b10 <.Loc.66>:
        PORTB |= (1 << PB7);
     b10:	2f 9a       	sbi	0x05, 7	; 5

00000b12 <.Loc.68>:
        test = 1;
     b12:	81 e0       	ldi	r24, 0x01	; 1
     b14:	90 e0       	ldi	r25, 0x00	; 0
     b16:	90 93 01 02 	sts	0x0201, r25	; 0x800201 <test.0+0x1>
     b1a:	80 93 00 02 	sts	0x0200, r24	; 0x800200 <test.0>

00000b1e <.L6>:
    }
}
     b1e:	08 95       	ret

00000b20 <.L9>:
        PORTB &= ~(1 << PB7);
     b20:	2f 98       	cbi	0x05, 7	; 5

00000b22 <.LBB12>:
     b22:	2f ef       	ldi	r18, 0xFF	; 255
     b24:	83 ed       	ldi	r24, 0xD3	; 211
     b26:	90 e3       	ldi	r25, 0x30	; 48

00000b28 <.L1^B3>:
     b28:	21 50       	subi	r18, 0x01	; 1
     b2a:	80 40       	sbci	r24, 0x00	; 0
     b2c:	90 40       	sbci	r25, 0x00	; 0
     b2e:	e1 f7       	brne	.-8      	; 0xb28 <.L1^B3>
     b30:	00 c0       	rjmp	.+0      	; 0xb32 <L0^A>

00000b32 <L0^A>:
	...

00000b34 <.LBE12>:
        acknowledge_agv();
     b34:	0e 94 95 00 	call	0x12a	; 0x12a <acknowledge_agv>

00000b38 <.LVL6>:
        test = 0;
     b38:	10 92 01 02 	sts	0x0201, r1	; 0x800201 <test.0+0x1>
     b3c:	10 92 00 02 	sts	0x0200, r1	; 0x800200 <test.0>
     b40:	08 95       	ret

00000b42 <test_module_versturen>:

void test_module_versturen(void){ //module
    int released = 1;
    if (((PINF & (1 << PF1)) == 0) && (released == 1)) {
     b42:	8f b1       	in	r24, 0x0f	; 15

00000b44 <.Loc.89>:
//        NEXT_AGV_PORT |= (1 << NEXT_AGV);
        released = 0;
        ////_delay_ms(1000);
        //NEXT_MOD_PORT &= ~(1 << NEXT_MOD);
    }
}
     b44:	08 95       	ret

00000b46 <ultrasoonAfstand_R_VOOR>:
#include "rfid_module_lib.h"
#include "us_sensor_lib.h"


uint16_t ultrasoonAfstand_R_VOOR(void)
{
     b46:	cf 93       	push	r28
     b48:	df 93       	push	r29
     b4a:	00 d0       	rcall	.+0      	; 0xb4c <L0^A>

00000b4c <L0^A>:
     b4c:	0f 92       	push	r0
     b4e:	cd b7       	in	r28, 0x3d	; 61
     b50:	de b7       	in	r29, 0x3e	; 62

00000b52 <.Loc.1>:
    // 1. Trigger
    US_TRIG_R_VOOR_PORT &= ~(1 << US_TRIG_R_VOOR);
     b52:	46 98       	cbi	0x08, 6	; 8

00000b54 <.Loc.3>:
    US_TRIG_R_VOOR_PORT |= (1 << US_TRIG_R_VOOR); _delay_us(10);
     b54:	46 9a       	sbi	0x08, 6	; 8

00000b56 <.LBB10>:
	#else
		//round up by default
		__ticks_dc = (uint32_t)(ceil(fabs(__tmp)));
	#endif

	__builtin_avr_delay_cycles(__ticks_dc);
     b56:	25 e3       	ldi	r18, 0x35	; 53

00000b58 <.L1^B1>:
     b58:	2a 95       	dec	r18
     b5a:	f1 f7       	brne	.-4      	; 0xb58 <.L1^B1>
	...

00000b5e <.LBE10>:
    US_TRIG_R_VOOR_PORT &= ~(1 << US_TRIG_R_VOOR);
     b5e:	46 98       	cbi	0x08, 6	; 8

00000b60 <.Loc.16>:

    // 2. Wacht op echo
    uint32_t timeout = TIMEOUT;
     b60:	80 e1       	ldi	r24, 0x10	; 16
     b62:	97 e2       	ldi	r25, 0x27	; 39
     b64:	a0 e0       	ldi	r26, 0x00	; 0
     b66:	b0 e0       	ldi	r27, 0x00	; 0

00000b68 <.L3>:
    while (!(US_ECHO_R_VOOR_PIN & (1 << US_ECHO_R_VOOR)) && timeout--);
     b68:	37 99       	sbic	0x06, 7	; 6
     b6a:	05 c0       	rjmp	.+10     	; 0xb76 <.L2>

00000b6c <.Loc.20>:
     b6c:	01 97       	sbiw	r24, 0x01	; 1
     b6e:	a1 09       	sbc	r26, r1
     b70:	b1 09       	sbc	r27, r1
     b72:	d0 f7       	brcc	.-12     	; 0xb68 <.L3>

00000b74 <.Loc.21>:
     b74:	05 c0       	rjmp	.+10     	; 0xb80 <.L4>

00000b76 <.L2>:
    if (timeout == 0) return 999;
     b76:	89 2b       	or	r24, r25
     b78:	8a 2b       	or	r24, r26
     b7a:	8b 2b       	or	r24, r27
     b7c:	09 f4       	brne	.+2      	; 0xb80 <.L4>

00000b7e <L0^A>:
     b7e:	42 c0       	rjmp	.+132    	; 0xc04 <.L8>

00000b80 <.L4>:

    // 3. Timer starten (prescaler 8)
    TCNT1 = 0;
     b80:	10 92 85 00 	sts	0x0085, r1	; 0x800085 <__TEXT_REGION_LENGTH__+0x700085>
     b84:	10 92 84 00 	sts	0x0084, r1	; 0x800084 <__TEXT_REGION_LENGTH__+0x700084>

00000b88 <.Loc.26>:
    TCCR1B = (1 << CS11);
     b88:	82 e0       	ldi	r24, 0x02	; 2
     b8a:	80 93 81 00 	sts	0x0081, r24	; 0x800081 <__TEXT_REGION_LENGTH__+0x700081>

00000b8e <.Loc.28>:

    // 4. Wachten op einde echo
    while (US_ECHO_R_VOOR_PIN & (1 << US_ECHO_R_VOOR) && TCNT1 < OVERFLOW);
     b8e:	e4 e8       	ldi	r30, 0x84	; 132
     b90:	f0 e0       	ldi	r31, 0x00	; 0

00000b92 <.L7>:
     b92:	37 9b       	sbis	0x06, 7	; 6
     b94:	05 c0       	rjmp	.+10     	; 0xba0 <.L6>

00000b96 <.Loc.31>:
     b96:	80 81       	ld	r24, Z
     b98:	91 81       	ldd	r25, Z+1	; 0x01

00000b9a <.Loc.32>:
     b9a:	80 34       	cpi	r24, 0x40	; 64
     b9c:	9c 49       	sbci	r25, 0x9C	; 156
     b9e:	c8 f3       	brcs	.-14     	; 0xb92 <.L7>

00000ba0 <.L6>:
    TCCR1B = 0;
     ba0:	10 92 81 00 	sts	0x0081, r1	; 0x800081 <__TEXT_REGION_LENGTH__+0x700081>

00000ba4 <.Loc.35>:

    // 5. Bereken afstand
    uint16_t distance = TCNT1 * TICKFACTOR;
     ba4:	80 91 84 00 	lds	r24, 0x0084	; 0x800084 <__TEXT_REGION_LENGTH__+0x700084>
     ba8:	90 91 85 00 	lds	r25, 0x0085	; 0x800085 <__TEXT_REGION_LENGTH__+0x700085>

00000bac <.Loc.37>:
     bac:	9c 01       	movw	r18, r24
     bae:	40 e0       	ldi	r20, 0x00	; 0
     bb0:	50 e0       	ldi	r21, 0x00	; 0
     bb2:	29 83       	std	Y+1, r18	; 0x01
     bb4:	3a 83       	std	Y+2, r19	; 0x02
     bb6:	4b 83       	std	Y+3, r20	; 0x03
     bb8:	5c 83       	std	Y+4, r21	; 0x04
     bba:	ca 01       	movw	r24, r20
     bbc:	b9 01       	movw	r22, r18
     bbe:	0e 94 40 08 	call	0x1080	; 0x1080 <__floatunsisf>

00000bc2 <.LVL6>:
     bc2:	28 e2       	ldi	r18, 0x28	; 40
     bc4:	3e e7       	ldi	r19, 0x7E	; 126
     bc6:	4c e0       	ldi	r20, 0x0C	; 12
     bc8:	5c e3       	ldi	r21, 0x3C	; 60
     bca:	69 83       	std	Y+1, r22	; 0x01
     bcc:	7a 83       	std	Y+2, r23	; 0x02
     bce:	8b 83       	std	Y+3, r24	; 0x03
     bd0:	9c 83       	std	Y+4, r25	; 0x04
     bd2:	69 81       	ldd	r22, Y+1	; 0x01
     bd4:	7a 81       	ldd	r23, Y+2	; 0x02
     bd6:	8b 81       	ldd	r24, Y+3	; 0x03
     bd8:	9c 81       	ldd	r25, Y+4	; 0x04
     bda:	0e 94 ce 08 	call	0x119c	; 0x119c <__mulsf3>

00000bde <.LVL7>:
     bde:	69 83       	std	Y+1, r22	; 0x01
     be0:	7a 83       	std	Y+2, r23	; 0x02
     be2:	8b 83       	std	Y+3, r24	; 0x03
     be4:	9c 83       	std	Y+4, r25	; 0x04
     be6:	69 81       	ldd	r22, Y+1	; 0x01
     be8:	7a 81       	ldd	r23, Y+2	; 0x02
     bea:	8b 81       	ldd	r24, Y+3	; 0x03
     bec:	9c 81       	ldd	r25, Y+4	; 0x04
     bee:	0e 94 11 08 	call	0x1022	; 0x1022 <__fixunssfsi>

00000bf2 <.LVL8>:
     bf2:	86 2f       	mov	r24, r22
     bf4:	97 2f       	mov	r25, r23

00000bf6 <.L1>:

    // 6. Return waarde
    return distance;
}
     bf6:	0f 90       	pop	r0
     bf8:	0f 90       	pop	r0
     bfa:	0f 90       	pop	r0
     bfc:	0f 90       	pop	r0
     bfe:	df 91       	pop	r29
     c00:	cf 91       	pop	r28
     c02:	08 95       	ret

00000c04 <.L8>:
    if (timeout == 0) return 999;
     c04:	87 ee       	ldi	r24, 0xE7	; 231
     c06:	93 e0       	ldi	r25, 0x03	; 3

00000c08 <.Loc.42>:
     c08:	f6 cf       	rjmp	.-20     	; 0xbf6 <.L1>

00000c0a <ultrasoonAfstand_L_VOOR>:

uint16_t ultrasoonAfstand_L_VOOR(void)
{
     c0a:	cf 93       	push	r28
     c0c:	df 93       	push	r29
     c0e:	00 d0       	rcall	.+0      	; 0xc10 <L0^A>

00000c10 <L0^A>:
     c10:	0f 92       	push	r0
     c12:	cd b7       	in	r28, 0x3d	; 61
     c14:	de b7       	in	r29, 0x3e	; 62

00000c16 <.Loc.44>:
    // 1. Trigger
    US_TRIG_L_VOOR_PORT &= ~(1 << US_TRIG_L_VOOR); //_delay_us(2);
     c16:	17 98       	cbi	0x02, 7	; 2

00000c18 <.Loc.46>:
    US_TRIG_L_VOOR_PORT |= (1 << US_TRIG_L_VOOR); _delay_us(10);
     c18:	17 9a       	sbi	0x02, 7	; 2

00000c1a <.LBB12>:
     c1a:	25 e3       	ldi	r18, 0x35	; 53

00000c1c <.L1^B2>:
     c1c:	2a 95       	dec	r18
     c1e:	f1 f7       	brne	.-4      	; 0xc1c <.L1^B2>
	...

00000c22 <.LBE12>:
    US_TRIG_L_VOOR_PORT &= ~(1 << US_TRIG_L_VOOR);
     c22:	17 98       	cbi	0x02, 7	; 2

00000c24 <.Loc.59>:

    // 2. Wacht op start echo
    uint32_t timeout = TIMEOUT;
     c24:	80 e1       	ldi	r24, 0x10	; 16
     c26:	97 e2       	ldi	r25, 0x27	; 39
     c28:	a0 e0       	ldi	r26, 0x00	; 0
     c2a:	b0 e0       	ldi	r27, 0x00	; 0

00000c2c <.L13>:
    while(!(US_ECHO_L_VOOR_PIN & (1 << US_ECHO_L_VOOR)) && timeout--);
     c2c:	06 99       	sbic	0x00, 6	; 0
     c2e:	05 c0       	rjmp	.+10     	; 0xc3a <.L12>

00000c30 <.Loc.63>:
     c30:	01 97       	sbiw	r24, 0x01	; 1
     c32:	a1 09       	sbc	r26, r1
     c34:	b1 09       	sbc	r27, r1
     c36:	d0 f7       	brcc	.-12     	; 0xc2c <.L13>

00000c38 <.Loc.64>:
     c38:	05 c0       	rjmp	.+10     	; 0xc44 <.L14>

00000c3a <.L12>:
    if(timeout == 0) return 999; // Foutmelding
     c3a:	89 2b       	or	r24, r25
     c3c:	8a 2b       	or	r24, r26
     c3e:	8b 2b       	or	r24, r27
     c40:	09 f4       	brne	.+2      	; 0xc44 <.L14>

00000c42 <L0^A>:
     c42:	42 c0       	rjmp	.+132    	; 0xcc8 <.L18>

00000c44 <.L14>:

    // 3. Start timer (Prescaler 8 -> 1 tick = 0.5us)
    TCNT1 = 0;
     c44:	10 92 85 00 	sts	0x0085, r1	; 0x800085 <__TEXT_REGION_LENGTH__+0x700085>
     c48:	10 92 84 00 	sts	0x0084, r1	; 0x800084 <__TEXT_REGION_LENGTH__+0x700084>

00000c4c <.Loc.69>:
    TCCR1B = (1 << CS11);
     c4c:	82 e0       	ldi	r24, 0x02	; 2
     c4e:	80 93 81 00 	sts	0x0081, r24	; 0x800081 <__TEXT_REGION_LENGTH__+0x700081>

00000c52 <.Loc.71>:

    // 4. Wacht op einde echo
    while((US_ECHO_L_VOOR_PIN & (1 << US_ECHO_L_VOOR)) && TCNT1 < OVERFLOW);
     c52:	e4 e8       	ldi	r30, 0x84	; 132
     c54:	f0 e0       	ldi	r31, 0x00	; 0

00000c56 <.L17>:
     c56:	06 9b       	sbis	0x00, 6	; 0
     c58:	05 c0       	rjmp	.+10     	; 0xc64 <.L16>

00000c5a <.Loc.74>:
     c5a:	80 81       	ld	r24, Z
     c5c:	91 81       	ldd	r25, Z+1	; 0x01

00000c5e <.Loc.75>:
     c5e:	80 34       	cpi	r24, 0x40	; 64
     c60:	9c 49       	sbci	r25, 0x9C	; 156
     c62:	c8 f3       	brcs	.-14     	; 0xc56 <.L17>

00000c64 <.L16>:
    TCCR1B = 0; // Stop timer
     c64:	10 92 81 00 	sts	0x0081, r1	; 0x800081 <__TEXT_REGION_LENGTH__+0x700081>

00000c68 <.Loc.78>:

    // 5. Bereken: ticks * 0.5us * 0.0343 / 2
    uint16_t distanceL = TCNT1 * TICKFACTOR;
     c68:	80 91 84 00 	lds	r24, 0x0084	; 0x800084 <__TEXT_REGION_LENGTH__+0x700084>
     c6c:	90 91 85 00 	lds	r25, 0x0085	; 0x800085 <__TEXT_REGION_LENGTH__+0x700085>

00000c70 <.Loc.80>:
     c70:	9c 01       	movw	r18, r24
     c72:	40 e0       	ldi	r20, 0x00	; 0
     c74:	50 e0       	ldi	r21, 0x00	; 0
     c76:	29 83       	std	Y+1, r18	; 0x01
     c78:	3a 83       	std	Y+2, r19	; 0x02
     c7a:	4b 83       	std	Y+3, r20	; 0x03
     c7c:	5c 83       	std	Y+4, r21	; 0x04
     c7e:	ca 01       	movw	r24, r20
     c80:	b9 01       	movw	r22, r18
     c82:	0e 94 40 08 	call	0x1080	; 0x1080 <__floatunsisf>

00000c86 <.LVL18>:
     c86:	28 e2       	ldi	r18, 0x28	; 40
     c88:	3e e7       	ldi	r19, 0x7E	; 126
     c8a:	4c e0       	ldi	r20, 0x0C	; 12
     c8c:	5c e3       	ldi	r21, 0x3C	; 60
     c8e:	69 83       	std	Y+1, r22	; 0x01
     c90:	7a 83       	std	Y+2, r23	; 0x02
     c92:	8b 83       	std	Y+3, r24	; 0x03
     c94:	9c 83       	std	Y+4, r25	; 0x04
     c96:	69 81       	ldd	r22, Y+1	; 0x01
     c98:	7a 81       	ldd	r23, Y+2	; 0x02
     c9a:	8b 81       	ldd	r24, Y+3	; 0x03
     c9c:	9c 81       	ldd	r25, Y+4	; 0x04
     c9e:	0e 94 ce 08 	call	0x119c	; 0x119c <__mulsf3>

00000ca2 <.LVL19>:
     ca2:	69 83       	std	Y+1, r22	; 0x01
     ca4:	7a 83       	std	Y+2, r23	; 0x02
     ca6:	8b 83       	std	Y+3, r24	; 0x03
     ca8:	9c 83       	std	Y+4, r25	; 0x04
     caa:	69 81       	ldd	r22, Y+1	; 0x01
     cac:	7a 81       	ldd	r23, Y+2	; 0x02
     cae:	8b 81       	ldd	r24, Y+3	; 0x03
     cb0:	9c 81       	ldd	r25, Y+4	; 0x04
     cb2:	0e 94 11 08 	call	0x1022	; 0x1022 <__fixunssfsi>

00000cb6 <.LVL20>:
     cb6:	86 2f       	mov	r24, r22
     cb8:	97 2f       	mov	r25, r23

00000cba <.L11>:

    // 6. Return waarde
    return distanceL;
}
     cba:	0f 90       	pop	r0
     cbc:	0f 90       	pop	r0
     cbe:	0f 90       	pop	r0
     cc0:	0f 90       	pop	r0
     cc2:	df 91       	pop	r29
     cc4:	cf 91       	pop	r28
     cc6:	08 95       	ret

00000cc8 <.L18>:
    if(timeout == 0) return 999; // Foutmelding
     cc8:	87 ee       	ldi	r24, 0xE7	; 231
     cca:	93 e0       	ldi	r25, 0x03	; 3

00000ccc <.Loc.85>:
     ccc:	f6 cf       	rjmp	.-20     	; 0xcba <.L11>

00000cce <ultrasoonAfstand_R_ACHTER>:

///ACHTERUIT///
uint16_t ultrasoonAfstand_R_ACHTER(void)
{
     cce:	cf 93       	push	r28
     cd0:	df 93       	push	r29
     cd2:	00 d0       	rcall	.+0      	; 0xcd4 <L0^A>

00000cd4 <L0^A>:
     cd4:	0f 92       	push	r0
     cd6:	cd b7       	in	r28, 0x3d	; 61
     cd8:	de b7       	in	r29, 0x3e	; 62

00000cda <.Loc.87>:
    // 1. Trigger
    US_TRIG_R_ACHTER_PORT &= ~(1 << US_TRIG_R_ACHTER);
     cda:	42 98       	cbi	0x08, 2	; 8

00000cdc <.Loc.89>:
    US_TRIG_R_ACHTER_PORT |= (1 << US_TRIG_R_ACHTER); _delay_us(10);
     cdc:	42 9a       	sbi	0x08, 2	; 8

00000cde <.LBB14>:
     cde:	25 e3       	ldi	r18, 0x35	; 53

00000ce0 <.L1^B3>:
     ce0:	2a 95       	dec	r18
     ce2:	f1 f7       	brne	.-4      	; 0xce0 <.L1^B3>
	...

00000ce6 <.LBE14>:
    US_TRIG_R_ACHTER_PORT &= ~(1 << US_TRIG_R_ACHTER);
     ce6:	42 98       	cbi	0x08, 2	; 8

00000ce8 <.Loc.102>:

    // 2. Wacht op echo
    uint32_t timeout = TIMEOUT;
     ce8:	80 e1       	ldi	r24, 0x10	; 16
     cea:	97 e2       	ldi	r25, 0x27	; 39
     cec:	a0 e0       	ldi	r26, 0x00	; 0
     cee:	b0 e0       	ldi	r27, 0x00	; 0

00000cf0 <.L23>:
    while (!(US_ECHO_R_ACHTER_PIN & (1 << US_ECHO_R_ACHTER)) && timeout--);
     cf0:	33 99       	sbic	0x06, 3	; 6
     cf2:	05 c0       	rjmp	.+10     	; 0xcfe <.L22>

00000cf4 <.Loc.106>:
     cf4:	01 97       	sbiw	r24, 0x01	; 1
     cf6:	a1 09       	sbc	r26, r1
     cf8:	b1 09       	sbc	r27, r1
     cfa:	d0 f7       	brcc	.-12     	; 0xcf0 <.L23>

00000cfc <.Loc.107>:
     cfc:	05 c0       	rjmp	.+10     	; 0xd08 <.L24>

00000cfe <.L22>:
    if (timeout == 0) return 999;
     cfe:	89 2b       	or	r24, r25
     d00:	8a 2b       	or	r24, r26
     d02:	8b 2b       	or	r24, r27
     d04:	09 f4       	brne	.+2      	; 0xd08 <.L24>

00000d06 <L0^A>:
     d06:	42 c0       	rjmp	.+132    	; 0xd8c <.L28>

00000d08 <.L24>:

    // 3. Timer starten (prescaler 8)
    TCNT1 = 0;
     d08:	10 92 85 00 	sts	0x0085, r1	; 0x800085 <__TEXT_REGION_LENGTH__+0x700085>
     d0c:	10 92 84 00 	sts	0x0084, r1	; 0x800084 <__TEXT_REGION_LENGTH__+0x700084>

00000d10 <.Loc.112>:
    TCCR1B = (1 << CS11);
     d10:	82 e0       	ldi	r24, 0x02	; 2
     d12:	80 93 81 00 	sts	0x0081, r24	; 0x800081 <__TEXT_REGION_LENGTH__+0x700081>

00000d16 <.Loc.114>:

    // 4. Wachten op einde echo
    while (US_ECHO_R_ACHTER_PIN & (1 << US_ECHO_R_ACHTER) && TCNT1 < OVERFLOW);
     d16:	e4 e8       	ldi	r30, 0x84	; 132
     d18:	f0 e0       	ldi	r31, 0x00	; 0

00000d1a <.L27>:
     d1a:	33 9b       	sbis	0x06, 3	; 6
     d1c:	05 c0       	rjmp	.+10     	; 0xd28 <.L26>

00000d1e <.Loc.117>:
     d1e:	80 81       	ld	r24, Z
     d20:	91 81       	ldd	r25, Z+1	; 0x01

00000d22 <.Loc.118>:
     d22:	80 34       	cpi	r24, 0x40	; 64
     d24:	9c 49       	sbci	r25, 0x9C	; 156
     d26:	c8 f3       	brcs	.-14     	; 0xd1a <.L27>

00000d28 <.L26>:
    TCCR1B = 0;
     d28:	10 92 81 00 	sts	0x0081, r1	; 0x800081 <__TEXT_REGION_LENGTH__+0x700081>

00000d2c <.Loc.121>:

    // 5. Bereken afstand
    uint16_t distance = TCNT1 * TICKFACTOR;
     d2c:	80 91 84 00 	lds	r24, 0x0084	; 0x800084 <__TEXT_REGION_LENGTH__+0x700084>
     d30:	90 91 85 00 	lds	r25, 0x0085	; 0x800085 <__TEXT_REGION_LENGTH__+0x700085>

00000d34 <.Loc.123>:
     d34:	9c 01       	movw	r18, r24
     d36:	40 e0       	ldi	r20, 0x00	; 0
     d38:	50 e0       	ldi	r21, 0x00	; 0
     d3a:	29 83       	std	Y+1, r18	; 0x01
     d3c:	3a 83       	std	Y+2, r19	; 0x02
     d3e:	4b 83       	std	Y+3, r20	; 0x03
     d40:	5c 83       	std	Y+4, r21	; 0x04
     d42:	ca 01       	movw	r24, r20
     d44:	b9 01       	movw	r22, r18
     d46:	0e 94 40 08 	call	0x1080	; 0x1080 <__floatunsisf>

00000d4a <.LVL30>:
     d4a:	28 e2       	ldi	r18, 0x28	; 40
     d4c:	3e e7       	ldi	r19, 0x7E	; 126
     d4e:	4c e0       	ldi	r20, 0x0C	; 12
     d50:	5c e3       	ldi	r21, 0x3C	; 60
     d52:	69 83       	std	Y+1, r22	; 0x01
     d54:	7a 83       	std	Y+2, r23	; 0x02
     d56:	8b 83       	std	Y+3, r24	; 0x03
     d58:	9c 83       	std	Y+4, r25	; 0x04
     d5a:	69 81       	ldd	r22, Y+1	; 0x01
     d5c:	7a 81       	ldd	r23, Y+2	; 0x02
     d5e:	8b 81       	ldd	r24, Y+3	; 0x03
     d60:	9c 81       	ldd	r25, Y+4	; 0x04
     d62:	0e 94 ce 08 	call	0x119c	; 0x119c <__mulsf3>

00000d66 <.LVL31>:
     d66:	69 83       	std	Y+1, r22	; 0x01
     d68:	7a 83       	std	Y+2, r23	; 0x02
     d6a:	8b 83       	std	Y+3, r24	; 0x03
     d6c:	9c 83       	std	Y+4, r25	; 0x04
     d6e:	69 81       	ldd	r22, Y+1	; 0x01
     d70:	7a 81       	ldd	r23, Y+2	; 0x02
     d72:	8b 81       	ldd	r24, Y+3	; 0x03
     d74:	9c 81       	ldd	r25, Y+4	; 0x04
     d76:	0e 94 11 08 	call	0x1022	; 0x1022 <__fixunssfsi>

00000d7a <.LVL32>:
     d7a:	86 2f       	mov	r24, r22
     d7c:	97 2f       	mov	r25, r23

00000d7e <.L21>:

    // 6. Return waarde
    return distance;
}
     d7e:	0f 90       	pop	r0
     d80:	0f 90       	pop	r0
     d82:	0f 90       	pop	r0
     d84:	0f 90       	pop	r0
     d86:	df 91       	pop	r29
     d88:	cf 91       	pop	r28
     d8a:	08 95       	ret

00000d8c <.L28>:
    if (timeout == 0) return 999;
     d8c:	87 ee       	ldi	r24, 0xE7	; 231
     d8e:	93 e0       	ldi	r25, 0x03	; 3

00000d90 <.Loc.128>:
     d90:	f6 cf       	rjmp	.-20     	; 0xd7e <.L21>

00000d92 <ultrasoonAfstand_L_ACHTER>:

uint16_t ultrasoonAfstand_L_ACHTER(void)
{
     d92:	cf 93       	push	r28
     d94:	df 93       	push	r29
     d96:	00 d0       	rcall	.+0      	; 0xd98 <L0^A>

00000d98 <L0^A>:
     d98:	0f 92       	push	r0
     d9a:	cd b7       	in	r28, 0x3d	; 61
     d9c:	de b7       	in	r29, 0x3e	; 62

00000d9e <.Loc.130>:
    // 1. Trigger
    US_TRIG_L_ACHTER_PORT &= ~(1 << US_TRIG_L_ACHTER); //_delay_us(2);
     d9e:	44 98       	cbi	0x08, 4	; 8

00000da0 <.Loc.132>:
    US_TRIG_L_ACHTER_PORT |= (1 << US_TRIG_L_ACHTER); _delay_us(10);
     da0:	44 9a       	sbi	0x08, 4	; 8

00000da2 <.LBB16>:
     da2:	25 e3       	ldi	r18, 0x35	; 53

00000da4 <.L1^B4>:
     da4:	2a 95       	dec	r18
     da6:	f1 f7       	brne	.-4      	; 0xda4 <.L1^B4>
	...

00000daa <.LBE16>:
    US_TRIG_L_ACHTER_PORT &= ~(1 << US_TRIG_L_ACHTER);
     daa:	44 98       	cbi	0x08, 4	; 8

00000dac <.Loc.145>:

    // 2. Wacht op start echo
    uint32_t timeout = TIMEOUT;
     dac:	80 e1       	ldi	r24, 0x10	; 16
     dae:	97 e2       	ldi	r25, 0x27	; 39
     db0:	a0 e0       	ldi	r26, 0x00	; 0
     db2:	b0 e0       	ldi	r27, 0x00	; 0

00000db4 <.L33>:
    while(!(US_ECHO_L_ACHTER_PIN & (1 << US_ECHO_L_ACHTER)) && timeout--);
     db4:	35 99       	sbic	0x06, 5	; 6
     db6:	05 c0       	rjmp	.+10     	; 0xdc2 <.L32>

00000db8 <.Loc.149>:
     db8:	01 97       	sbiw	r24, 0x01	; 1
     dba:	a1 09       	sbc	r26, r1
     dbc:	b1 09       	sbc	r27, r1
     dbe:	d0 f7       	brcc	.-12     	; 0xdb4 <.L33>

00000dc0 <.Loc.150>:
     dc0:	05 c0       	rjmp	.+10     	; 0xdcc <.L34>

00000dc2 <.L32>:
    if(timeout == 0) return 999; // Foutmelding
     dc2:	89 2b       	or	r24, r25
     dc4:	8a 2b       	or	r24, r26
     dc6:	8b 2b       	or	r24, r27
     dc8:	09 f4       	brne	.+2      	; 0xdcc <.L34>

00000dca <L0^A>:
     dca:	42 c0       	rjmp	.+132    	; 0xe50 <.L38>

00000dcc <.L34>:

    // 3. Start timer (Prescaler 8 -> 1 tick = 0.5us)
    TCNT1 = 0;
     dcc:	10 92 85 00 	sts	0x0085, r1	; 0x800085 <__TEXT_REGION_LENGTH__+0x700085>
     dd0:	10 92 84 00 	sts	0x0084, r1	; 0x800084 <__TEXT_REGION_LENGTH__+0x700084>

00000dd4 <.Loc.155>:
    TCCR1B = (1 << CS11);
     dd4:	82 e0       	ldi	r24, 0x02	; 2
     dd6:	80 93 81 00 	sts	0x0081, r24	; 0x800081 <__TEXT_REGION_LENGTH__+0x700081>

00000dda <.Loc.157>:

    // 4. Wacht op einde echo
    while((US_ECHO_L_ACHTER_PIN & (1 << US_ECHO_L_ACHTER)) && TCNT1 < OVERFLOW);
     dda:	e4 e8       	ldi	r30, 0x84	; 132
     ddc:	f0 e0       	ldi	r31, 0x00	; 0

00000dde <.L37>:
     dde:	35 9b       	sbis	0x06, 5	; 6
     de0:	05 c0       	rjmp	.+10     	; 0xdec <.L36>

00000de2 <.Loc.160>:
     de2:	80 81       	ld	r24, Z
     de4:	91 81       	ldd	r25, Z+1	; 0x01

00000de6 <.Loc.161>:
     de6:	80 34       	cpi	r24, 0x40	; 64
     de8:	9c 49       	sbci	r25, 0x9C	; 156
     dea:	c8 f3       	brcs	.-14     	; 0xdde <.L37>

00000dec <.L36>:
    TCCR1B = 0; // Stop timer
     dec:	10 92 81 00 	sts	0x0081, r1	; 0x800081 <__TEXT_REGION_LENGTH__+0x700081>

00000df0 <.Loc.164>:

    // 5. Bereken: ticks * 0.5us * 0.0343 / 2
    uint16_t distanceL = TCNT1 * TICKFACTOR;
     df0:	80 91 84 00 	lds	r24, 0x0084	; 0x800084 <__TEXT_REGION_LENGTH__+0x700084>
     df4:	90 91 85 00 	lds	r25, 0x0085	; 0x800085 <__TEXT_REGION_LENGTH__+0x700085>

00000df8 <.Loc.166>:
     df8:	9c 01       	movw	r18, r24
     dfa:	40 e0       	ldi	r20, 0x00	; 0
     dfc:	50 e0       	ldi	r21, 0x00	; 0
     dfe:	29 83       	std	Y+1, r18	; 0x01
     e00:	3a 83       	std	Y+2, r19	; 0x02
     e02:	4b 83       	std	Y+3, r20	; 0x03
     e04:	5c 83       	std	Y+4, r21	; 0x04
     e06:	ca 01       	movw	r24, r20
     e08:	b9 01       	movw	r22, r18
     e0a:	0e 94 40 08 	call	0x1080	; 0x1080 <__floatunsisf>

00000e0e <.LVL42>:
     e0e:	28 e2       	ldi	r18, 0x28	; 40
     e10:	3e e7       	ldi	r19, 0x7E	; 126
     e12:	4c e0       	ldi	r20, 0x0C	; 12
     e14:	5c e3       	ldi	r21, 0x3C	; 60
     e16:	69 83       	std	Y+1, r22	; 0x01
     e18:	7a 83       	std	Y+2, r23	; 0x02
     e1a:	8b 83       	std	Y+3, r24	; 0x03
     e1c:	9c 83       	std	Y+4, r25	; 0x04
     e1e:	69 81       	ldd	r22, Y+1	; 0x01
     e20:	7a 81       	ldd	r23, Y+2	; 0x02
     e22:	8b 81       	ldd	r24, Y+3	; 0x03
     e24:	9c 81       	ldd	r25, Y+4	; 0x04
     e26:	0e 94 ce 08 	call	0x119c	; 0x119c <__mulsf3>

00000e2a <.LVL43>:
     e2a:	69 83       	std	Y+1, r22	; 0x01
     e2c:	7a 83       	std	Y+2, r23	; 0x02
     e2e:	8b 83       	std	Y+3, r24	; 0x03
     e30:	9c 83       	std	Y+4, r25	; 0x04
     e32:	69 81       	ldd	r22, Y+1	; 0x01
     e34:	7a 81       	ldd	r23, Y+2	; 0x02
     e36:	8b 81       	ldd	r24, Y+3	; 0x03
     e38:	9c 81       	ldd	r25, Y+4	; 0x04
     e3a:	0e 94 11 08 	call	0x1022	; 0x1022 <__fixunssfsi>

00000e3e <.LVL44>:
     e3e:	86 2f       	mov	r24, r22
     e40:	97 2f       	mov	r25, r23

00000e42 <.L31>:

    // 6. Return waarde
    return distanceL;
}
     e42:	0f 90       	pop	r0
     e44:	0f 90       	pop	r0
     e46:	0f 90       	pop	r0
     e48:	0f 90       	pop	r0
     e4a:	df 91       	pop	r29
     e4c:	cf 91       	pop	r28
     e4e:	08 95       	ret

00000e50 <.L38>:
    if(timeout == 0) return 999; // Foutmelding
     e50:	87 ee       	ldi	r24, 0xE7	; 231
     e52:	93 e0       	ldi	r25, 0x03	; 3

00000e54 <.Loc.171>:
     e54:	f6 cf       	rjmp	.-20     	; 0xe42 <.L31>

00000e56 <__subsf3>:
     e56:	50 58       	subi	r21, 0x80	; 128

00000e58 <__addsf3>:
     e58:	bb 27       	eor	r27, r27
     e5a:	aa 27       	eor	r26, r26
     e5c:	0e 94 43 07 	call	0xe86	; 0xe86 <__addsf3x>
     e60:	0c 94 94 08 	jmp	0x1128	; 0x1128 <__fp_round>

00000e64 <.L^B1>:
     e64:	0e 94 86 08 	call	0x110c	; 0x110c <__fp_pscA>
     e68:	38 f0       	brcs	.+14     	; 0xe78 <.L_nan>
     e6a:	0e 94 8d 08 	call	0x111a	; 0x111a <__fp_pscB>
     e6e:	20 f0       	brcs	.+8      	; 0xe78 <.L_nan>
     e70:	39 f4       	brne	.+14     	; 0xe80 <.L_inf>
     e72:	9f 3f       	cpi	r25, 0xFF	; 255
     e74:	19 f4       	brne	.+6      	; 0xe7c <.L_infB>
     e76:	26 f4       	brtc	.+8      	; 0xe80 <.L_inf>

00000e78 <.L_nan>:
     e78:	0c 94 83 08 	jmp	0x1106	; 0x1106 <__fp_nan>

00000e7c <.L_infB>:
     e7c:	0e f4       	brtc	.+2      	; 0xe80 <.L_inf>
     e7e:	e0 95       	com	r30

00000e80 <.L_inf>:
     e80:	e7 fb       	bst	r30, 7
     e82:	0c 94 7d 08 	jmp	0x10fa	; 0x10fa <__fp_inf>

00000e86 <__addsf3x>:
     e86:	e9 2f       	mov	r30, r25
     e88:	0e 94 a5 08 	call	0x114a	; 0x114a <__fp_split3>
     e8c:	58 f3       	brcs	.-42     	; 0xe64 <.L^B1>
     e8e:	ba 17       	cp	r27, r26
     e90:	62 07       	cpc	r22, r18
     e92:	73 07       	cpc	r23, r19
     e94:	84 07       	cpc	r24, r20
     e96:	95 07       	cpc	r25, r21
     e98:	20 f0       	brcs	.+8      	; 0xea2 <.L2^B1>
     e9a:	79 f4       	brne	.+30     	; 0xeba <.L4^B1>
     e9c:	a6 f5       	brtc	.+104    	; 0xf06 <.L_add>
     e9e:	0c 94 c7 08 	jmp	0x118e	; 0x118e <__fp_zero>

00000ea2 <.L2^B1>:
     ea2:	0e f4       	brtc	.+2      	; 0xea6 <.L3^B1>
     ea4:	e0 95       	com	r30

00000ea6 <.L3^B1>:
     ea6:	0b 2e       	mov	r0, r27
     ea8:	ba 2f       	mov	r27, r26
     eaa:	a0 2d       	mov	r26, r0
     eac:	0b 01       	movw	r0, r22
     eae:	b9 01       	movw	r22, r18
     eb0:	90 01       	movw	r18, r0
     eb2:	0c 01       	movw	r0, r24
     eb4:	ca 01       	movw	r24, r20
     eb6:	a0 01       	movw	r20, r0
     eb8:	11 24       	eor	r1, r1

00000eba <.L4^B1>:
     eba:	ff 27       	eor	r31, r31
     ebc:	59 1b       	sub	r21, r25

00000ebe <.L5^B1>:
     ebe:	99 f0       	breq	.+38     	; 0xee6 <.L7^B1>
     ec0:	59 3f       	cpi	r21, 0xF9	; 249
     ec2:	50 f4       	brcc	.+20     	; 0xed8 <.L6^B1>
     ec4:	50 3e       	cpi	r21, 0xE0	; 224
     ec6:	68 f1       	brcs	.+90     	; 0xf22 <.L_ret>
     ec8:	1a 16       	cp	r1, r26
     eca:	f0 40       	sbci	r31, 0x00	; 0
     ecc:	a2 2f       	mov	r26, r18
     ece:	23 2f       	mov	r18, r19
     ed0:	34 2f       	mov	r19, r20
     ed2:	44 27       	eor	r20, r20
     ed4:	58 5f       	subi	r21, 0xF8	; 248
     ed6:	f3 cf       	rjmp	.-26     	; 0xebe <.L5^B1>

00000ed8 <.L6^B1>:
     ed8:	46 95       	lsr	r20
     eda:	37 95       	ror	r19
     edc:	27 95       	ror	r18
     ede:	a7 95       	ror	r26
     ee0:	f0 40       	sbci	r31, 0x00	; 0
     ee2:	53 95       	inc	r21
     ee4:	c9 f7       	brne	.-14     	; 0xed8 <.L6^B1>

00000ee6 <.L7^B1>:
     ee6:	7e f4       	brtc	.+30     	; 0xf06 <.L_add>
     ee8:	1f 16       	cp	r1, r31
     eea:	ba 0b       	sbc	r27, r26
     eec:	62 0b       	sbc	r22, r18
     eee:	73 0b       	sbc	r23, r19
     ef0:	84 0b       	sbc	r24, r20
     ef2:	ba f0       	brmi	.+46     	; 0xf22 <.L_ret>

00000ef4 <.L8^B1>:
     ef4:	91 50       	subi	r25, 0x01	; 1
     ef6:	a1 f0       	breq	.+40     	; 0xf20 <.L9^B1>
     ef8:	ff 0f       	add	r31, r31
     efa:	bb 1f       	adc	r27, r27
     efc:	66 1f       	adc	r22, r22
     efe:	77 1f       	adc	r23, r23
     f00:	88 1f       	adc	r24, r24
     f02:	c2 f7       	brpl	.-16     	; 0xef4 <.L8^B1>
     f04:	0e c0       	rjmp	.+28     	; 0xf22 <.L_ret>

00000f06 <.L_add>:
     f06:	ba 0f       	add	r27, r26
     f08:	62 1f       	adc	r22, r18
     f0a:	73 1f       	adc	r23, r19
     f0c:	84 1f       	adc	r24, r20
     f0e:	48 f4       	brcc	.+18     	; 0xf22 <.L_ret>
     f10:	87 95       	ror	r24
     f12:	77 95       	ror	r23
     f14:	67 95       	ror	r22
     f16:	b7 95       	ror	r27
     f18:	f7 95       	ror	r31
     f1a:	9e 3f       	cpi	r25, 0xFE	; 254
     f1c:	08 f0       	brcs	.+2      	; 0xf20 <.L9^B1>
     f1e:	b0 cf       	rjmp	.-160    	; 0xe80 <.L_inf>

00000f20 <.L9^B1>:
     f20:	93 95       	inc	r25

00000f22 <.L_ret>:
     f22:	88 0f       	add	r24, r24
     f24:	08 f0       	brcs	.+2      	; 0xf28 <.L1^B1>
     f26:	99 27       	eor	r25, r25

00000f28 <.L1^B1>:
     f28:	ee 0f       	add	r30, r30
     f2a:	97 95       	ror	r25
     f2c:	87 95       	ror	r24
     f2e:	08 95       	ret

00000f30 <__divsf3>:
     f30:	0e 94 ac 07 	call	0xf58	; 0xf58 <__divsf3x>
     f34:	0c 94 94 08 	jmp	0x1128	; 0x1128 <__fp_round>

00000f38 <.L^B1>:
     f38:	0e 94 8d 08 	call	0x111a	; 0x111a <__fp_pscB>
     f3c:	58 f0       	brcs	.+22     	; 0xf54 <.L_nan>
     f3e:	0e 94 86 08 	call	0x110c	; 0x110c <__fp_pscA>
     f42:	40 f0       	brcs	.+16     	; 0xf54 <.L_nan>
     f44:	29 f4       	brne	.+10     	; 0xf50 <.L_zr>
     f46:	5f 3f       	cpi	r21, 0xFF	; 255
     f48:	29 f0       	breq	.+10     	; 0xf54 <.L_nan>

00000f4a <.L_inf>:
     f4a:	0c 94 7d 08 	jmp	0x10fa	; 0x10fa <__fp_inf>

00000f4e <.L1^B1>:
     f4e:	51 11       	cpse	r21, r1

00000f50 <.L_zr>:
     f50:	0c 94 c8 08 	jmp	0x1190	; 0x1190 <__fp_szero>

00000f54 <.L_nan>:
     f54:	0c 94 83 08 	jmp	0x1106	; 0x1106 <__fp_nan>

00000f58 <__divsf3x>:
     f58:	0e 94 a5 08 	call	0x114a	; 0x114a <__fp_split3>
     f5c:	68 f3       	brcs	.-38     	; 0xf38 <.L^B1>

00000f5e <__divsf3_pse>:
     f5e:	99 23       	and	r25, r25
     f60:	b1 f3       	breq	.-20     	; 0xf4e <.L1^B1>
     f62:	55 23       	and	r21, r21
     f64:	91 f3       	breq	.-28     	; 0xf4a <.L_inf>
     f66:	95 1b       	sub	r25, r21
     f68:	55 0b       	sbc	r21, r21
     f6a:	bb 27       	eor	r27, r27
     f6c:	aa 27       	eor	r26, r26

00000f6e <.L2^B1>:
     f6e:	62 17       	cp	r22, r18
     f70:	73 07       	cpc	r23, r19
     f72:	84 07       	cpc	r24, r20
     f74:	38 f0       	brcs	.+14     	; 0xf84 <.L3^B1>
     f76:	9f 5f       	subi	r25, 0xFF	; 255
     f78:	5f 4f       	sbci	r21, 0xFF	; 255
     f7a:	22 0f       	add	r18, r18
     f7c:	33 1f       	adc	r19, r19
     f7e:	44 1f       	adc	r20, r20
     f80:	aa 1f       	adc	r26, r26
     f82:	a9 f3       	breq	.-22     	; 0xf6e <.L2^B1>

00000f84 <.L3^B1>:
     f84:	35 d0       	rcall	.+106    	; 0xff0 <.L_div>
     f86:	0e 2e       	mov	r0, r30
     f88:	3a f0       	brmi	.+14     	; 0xf98 <.L5^B1>

00000f8a <.L4^B1>:
     f8a:	e0 e8       	ldi	r30, 0x80	; 128
     f8c:	32 d0       	rcall	.+100    	; 0xff2 <.L_div1>
     f8e:	91 50       	subi	r25, 0x01	; 1
     f90:	50 40       	sbci	r21, 0x00	; 0
     f92:	e6 95       	lsr	r30
     f94:	00 1c       	adc	r0, r0
     f96:	ca f7       	brpl	.-14     	; 0xf8a <.L4^B1>

00000f98 <.L5^B1>:
     f98:	2b d0       	rcall	.+86     	; 0xff0 <.L_div>
     f9a:	fe 2f       	mov	r31, r30
     f9c:	29 d0       	rcall	.+82     	; 0xff0 <.L_div>
     f9e:	66 0f       	add	r22, r22
     fa0:	77 1f       	adc	r23, r23
     fa2:	88 1f       	adc	r24, r24
     fa4:	bb 1f       	adc	r27, r27
     fa6:	26 17       	cp	r18, r22
     fa8:	37 07       	cpc	r19, r23
     faa:	48 07       	cpc	r20, r24
     fac:	ab 07       	cpc	r26, r27
     fae:	b0 e8       	ldi	r27, 0x80	; 128
     fb0:	09 f0       	breq	.+2      	; 0xfb4 <.L4^B2>
     fb2:	bb 0b       	sbc	r27, r27

00000fb4 <.L4^B2>:
     fb4:	80 2d       	mov	r24, r0
     fb6:	bf 01       	movw	r22, r30
     fb8:	ff 27       	eor	r31, r31
     fba:	93 58       	subi	r25, 0x83	; 131
     fbc:	5f 4f       	sbci	r21, 0xFF	; 255
     fbe:	3a f0       	brmi	.+14     	; 0xfce <.L13^B1>
     fc0:	9e 3f       	cpi	r25, 0xFE	; 254
     fc2:	51 05       	cpc	r21, r1
     fc4:	78 f0       	brcs	.+30     	; 0xfe4 <.L15^B1>
     fc6:	0c 94 7d 08 	jmp	0x10fa	; 0x10fa <__fp_inf>

00000fca <.L12^B1>:
     fca:	0c 94 c8 08 	jmp	0x1190	; 0x1190 <__fp_szero>

00000fce <.L13^B1>:
     fce:	5f 3f       	cpi	r21, 0xFF	; 255
     fd0:	e4 f3       	brlt	.-8      	; 0xfca <.L12^B1>
     fd2:	98 3e       	cpi	r25, 0xE8	; 232
     fd4:	d4 f3       	brlt	.-12     	; 0xfca <.L12^B1>

00000fd6 <.L14^B1>:
     fd6:	86 95       	lsr	r24
     fd8:	77 95       	ror	r23
     fda:	67 95       	ror	r22
     fdc:	b7 95       	ror	r27
     fde:	f7 95       	ror	r31
     fe0:	9f 5f       	subi	r25, 0xFF	; 255
     fe2:	c9 f7       	brne	.-14     	; 0xfd6 <.L14^B1>

00000fe4 <.L15^B1>:
     fe4:	88 0f       	add	r24, r24
     fe6:	91 1d       	adc	r25, r1
     fe8:	96 95       	lsr	r25
     fea:	87 95       	ror	r24
     fec:	97 f9       	bld	r25, 7
     fee:	08 95       	ret

00000ff0 <.L_div>:
     ff0:	e1 e0       	ldi	r30, 0x01	; 1

00000ff2 <.L_div1>:
     ff2:	66 0f       	add	r22, r22
     ff4:	77 1f       	adc	r23, r23
     ff6:	88 1f       	adc	r24, r24
     ff8:	bb 1f       	adc	r27, r27
     ffa:	62 17       	cp	r22, r18
     ffc:	73 07       	cpc	r23, r19
     ffe:	84 07       	cpc	r24, r20
    1000:	ba 07       	cpc	r27, r26
    1002:	20 f0       	brcs	.+8      	; 0x100c <.L2^B2>
    1004:	62 1b       	sub	r22, r18
    1006:	73 0b       	sbc	r23, r19
    1008:	84 0b       	sbc	r24, r20
    100a:	ba 0b       	sbc	r27, r26

0000100c <.L2^B2>:
    100c:	ee 1f       	adc	r30, r30
    100e:	88 f7       	brcc	.-30     	; 0xff2 <.L_div1>
    1010:	e0 95       	com	r30
    1012:	08 95       	ret

00001014 <__fixsfsi>:
    1014:	0e 94 11 08 	call	0x1022	; 0x1022 <__fixunssfsi>
    1018:	68 94       	set
    101a:	b1 11       	cpse	r27, r1
    101c:	0c 94 c8 08 	jmp	0x1190	; 0x1190 <__fp_szero>
    1020:	08 95       	ret

00001022 <__fixunssfsi>:
    1022:	0e 94 ad 08 	call	0x115a	; 0x115a <__fp_splitA>
    1026:	88 f0       	brcs	.+34     	; 0x104a <.L_err>
    1028:	9f 57       	subi	r25, 0x7F	; 127
    102a:	98 f0       	brcs	.+38     	; 0x1052 <.L_zr>
    102c:	b9 2f       	mov	r27, r25
    102e:	99 27       	eor	r25, r25
    1030:	b7 51       	subi	r27, 0x17	; 23
    1032:	b0 f0       	brcs	.+44     	; 0x1060 <.L4^B1>
    1034:	e1 f0       	breq	.+56     	; 0x106e <.L_sign>

00001036 <.L1^B1>:
    1036:	66 0f       	add	r22, r22
    1038:	77 1f       	adc	r23, r23
    103a:	88 1f       	adc	r24, r24
    103c:	99 1f       	adc	r25, r25
    103e:	1a f0       	brmi	.+6      	; 0x1046 <.L2^B1>
    1040:	ba 95       	dec	r27
    1042:	c9 f7       	brne	.-14     	; 0x1036 <.L1^B1>
    1044:	14 c0       	rjmp	.+40     	; 0x106e <.L_sign>

00001046 <.L2^B1>:
    1046:	b1 30       	cpi	r27, 0x01	; 1
    1048:	91 f0       	breq	.+36     	; 0x106e <.L_sign>

0000104a <.L_err>:
    104a:	0e 94 c7 08 	call	0x118e	; 0x118e <__fp_zero>
    104e:	b1 e0       	ldi	r27, 0x01	; 1
    1050:	08 95       	ret

00001052 <.L_zr>:
    1052:	0c 94 c7 08 	jmp	0x118e	; 0x118e <__fp_zero>

00001056 <.L3^B1>:
    1056:	67 2f       	mov	r22, r23
    1058:	78 2f       	mov	r23, r24
    105a:	88 27       	eor	r24, r24
    105c:	b8 5f       	subi	r27, 0xF8	; 248
    105e:	39 f0       	breq	.+14     	; 0x106e <.L_sign>

00001060 <.L4^B1>:
    1060:	b9 3f       	cpi	r27, 0xF9	; 249
    1062:	cc f3       	brlt	.-14     	; 0x1056 <.L3^B1>

00001064 <.L5^B1>:
    1064:	86 95       	lsr	r24
    1066:	77 95       	ror	r23
    1068:	67 95       	ror	r22
    106a:	b3 95       	inc	r27
    106c:	d9 f7       	brne	.-10     	; 0x1064 <.L5^B1>

0000106e <.L_sign>:
    106e:	3e f4       	brtc	.+14     	; 0x107e <.L6^B1>
    1070:	90 95       	com	r25
    1072:	80 95       	com	r24
    1074:	70 95       	com	r23
    1076:	61 95       	neg	r22
    1078:	7f 4f       	sbci	r23, 0xFF	; 255
    107a:	8f 4f       	sbci	r24, 0xFF	; 255
    107c:	9f 4f       	sbci	r25, 0xFF	; 255

0000107e <.L6^B1>:
    107e:	08 95       	ret

00001080 <__floatunsisf>:
    1080:	e8 94       	clt
    1082:	09 c0       	rjmp	.+18     	; 0x1096 <.L1^B1>

00001084 <__floatsisf>:
    1084:	97 fb       	bst	r25, 7
    1086:	3e f4       	brtc	.+14     	; 0x1096 <.L1^B1>
    1088:	90 95       	com	r25
    108a:	80 95       	com	r24
    108c:	70 95       	com	r23
    108e:	61 95       	neg	r22
    1090:	7f 4f       	sbci	r23, 0xFF	; 255
    1092:	8f 4f       	sbci	r24, 0xFF	; 255
    1094:	9f 4f       	sbci	r25, 0xFF	; 255

00001096 <.L1^B1>:
    1096:	99 23       	and	r25, r25
    1098:	a9 f0       	breq	.+42     	; 0x10c4 <.L4^B1>
    109a:	f9 2f       	mov	r31, r25
    109c:	96 e9       	ldi	r25, 0x96	; 150
    109e:	bb 27       	eor	r27, r27

000010a0 <.L2^B1>:
    10a0:	93 95       	inc	r25
    10a2:	f6 95       	lsr	r31
    10a4:	87 95       	ror	r24
    10a6:	77 95       	ror	r23
    10a8:	67 95       	ror	r22
    10aa:	b7 95       	ror	r27
    10ac:	f1 11       	cpse	r31, r1
    10ae:	f8 cf       	rjmp	.-16     	; 0x10a0 <.L2^B1>
    10b0:	fa f4       	brpl	.+62     	; 0x10f0 <.L_pack>
    10b2:	bb 0f       	add	r27, r27
    10b4:	11 f4       	brne	.+4      	; 0x10ba <.L3^B1>
    10b6:	60 ff       	sbrs	r22, 0
    10b8:	1b c0       	rjmp	.+54     	; 0x10f0 <.L_pack>

000010ba <.L3^B1>:
    10ba:	6f 5f       	subi	r22, 0xFF	; 255
    10bc:	7f 4f       	sbci	r23, 0xFF	; 255
    10be:	8f 4f       	sbci	r24, 0xFF	; 255
    10c0:	9f 4f       	sbci	r25, 0xFF	; 255
    10c2:	16 c0       	rjmp	.+44     	; 0x10f0 <.L_pack>

000010c4 <.L4^B1>:
    10c4:	88 23       	and	r24, r24
    10c6:	11 f0       	breq	.+4      	; 0x10cc <.L5^B1>
    10c8:	96 e9       	ldi	r25, 0x96	; 150
    10ca:	11 c0       	rjmp	.+34     	; 0x10ee <.L8^B1>

000010cc <.L5^B1>:
    10cc:	77 23       	and	r23, r23
    10ce:	21 f0       	breq	.+8      	; 0x10d8 <.L6^B1>
    10d0:	9e e8       	ldi	r25, 0x8E	; 142
    10d2:	87 2f       	mov	r24, r23
    10d4:	76 2f       	mov	r23, r22
    10d6:	05 c0       	rjmp	.+10     	; 0x10e2 <.L7^B1>

000010d8 <.L6^B1>:
    10d8:	66 23       	and	r22, r22
    10da:	71 f0       	breq	.+28     	; 0x10f8 <.L9^B1>
    10dc:	96 e8       	ldi	r25, 0x86	; 134
    10de:	86 2f       	mov	r24, r22
    10e0:	70 e0       	ldi	r23, 0x00	; 0

000010e2 <.L7^B1>:
    10e2:	60 e0       	ldi	r22, 0x00	; 0
    10e4:	2a f0       	brmi	.+10     	; 0x10f0 <.L_pack>

000010e6 <.L10^B1>:
    10e6:	9a 95       	dec	r25
    10e8:	66 0f       	add	r22, r22
    10ea:	77 1f       	adc	r23, r23
    10ec:	88 1f       	adc	r24, r24

000010ee <.L8^B1>:
    10ee:	da f7       	brpl	.-10     	; 0x10e6 <.L10^B1>

000010f0 <.L_pack>:
    10f0:	88 0f       	add	r24, r24
    10f2:	96 95       	lsr	r25
    10f4:	87 95       	ror	r24
    10f6:	97 f9       	bld	r25, 7

000010f8 <.L9^B1>:
    10f8:	08 95       	ret

000010fa <__fp_inf>:
    10fa:	97 f9       	bld	r25, 7
    10fc:	9f 67       	ori	r25, 0x7F	; 127
    10fe:	80 e8       	ldi	r24, 0x80	; 128
    1100:	70 e0       	ldi	r23, 0x00	; 0
    1102:	60 e0       	ldi	r22, 0x00	; 0
    1104:	08 95       	ret

00001106 <__fp_nan>:
    1106:	9f ef       	ldi	r25, 0xFF	; 255
    1108:	80 ec       	ldi	r24, 0xC0	; 192
    110a:	08 95       	ret

0000110c <__fp_pscA>:
    110c:	00 24       	eor	r0, r0
    110e:	0a 94       	dec	r0
    1110:	16 16       	cp	r1, r22
    1112:	17 06       	cpc	r1, r23
    1114:	18 06       	cpc	r1, r24
    1116:	09 06       	cpc	r0, r25
    1118:	08 95       	ret

0000111a <__fp_pscB>:
    111a:	00 24       	eor	r0, r0
    111c:	0a 94       	dec	r0
    111e:	12 16       	cp	r1, r18
    1120:	13 06       	cpc	r1, r19
    1122:	14 06       	cpc	r1, r20
    1124:	05 06       	cpc	r0, r21
    1126:	08 95       	ret

00001128 <__fp_round>:
    1128:	09 2e       	mov	r0, r25
    112a:	03 94       	inc	r0
    112c:	00 0c       	add	r0, r0
    112e:	11 f4       	brne	.+4      	; 0x1134 <.L1^B1>
    1130:	88 23       	and	r24, r24
    1132:	52 f0       	brmi	.+20     	; 0x1148 <.L3^B1>

00001134 <.L1^B1>:
    1134:	bb 0f       	add	r27, r27
    1136:	40 f4       	brcc	.+16     	; 0x1148 <.L3^B1>
    1138:	bf 2b       	or	r27, r31
    113a:	11 f4       	brne	.+4      	; 0x1140 <.L2^B1>
    113c:	60 ff       	sbrs	r22, 0
    113e:	04 c0       	rjmp	.+8      	; 0x1148 <.L3^B1>

00001140 <.L2^B1>:
    1140:	6f 5f       	subi	r22, 0xFF	; 255
    1142:	7f 4f       	sbci	r23, 0xFF	; 255
    1144:	8f 4f       	sbci	r24, 0xFF	; 255
    1146:	9f 4f       	sbci	r25, 0xFF	; 255

00001148 <.L3^B1>:
    1148:	08 95       	ret

0000114a <__fp_split3>:
    114a:	57 fd       	sbrc	r21, 7
    114c:	90 58       	subi	r25, 0x80	; 128
    114e:	44 0f       	add	r20, r20
    1150:	55 1f       	adc	r21, r21
    1152:	59 f0       	breq	.+22     	; 0x116a <.L4^B1>
    1154:	5f 3f       	cpi	r21, 0xFF	; 255
    1156:	71 f0       	breq	.+28     	; 0x1174 <.L5^B1>

00001158 <.L1^B1>:
    1158:	47 95       	ror	r20

0000115a <__fp_splitA>:
    115a:	88 0f       	add	r24, r24
    115c:	97 fb       	bst	r25, 7
    115e:	99 1f       	adc	r25, r25
    1160:	61 f0       	breq	.+24     	; 0x117a <.L6^B1>
    1162:	9f 3f       	cpi	r25, 0xFF	; 255
    1164:	79 f0       	breq	.+30     	; 0x1184 <.L7^B1>

00001166 <.L3^B1>:
    1166:	87 95       	ror	r24
    1168:	08 95       	ret

0000116a <.L4^B1>:
    116a:	12 16       	cp	r1, r18
    116c:	13 06       	cpc	r1, r19
    116e:	14 06       	cpc	r1, r20
    1170:	55 1f       	adc	r21, r21
    1172:	f2 cf       	rjmp	.-28     	; 0x1158 <.L1^B1>

00001174 <.L5^B1>:
    1174:	46 95       	lsr	r20
    1176:	f1 df       	rcall	.-30     	; 0x115a <__fp_splitA>
    1178:	08 c0       	rjmp	.+16     	; 0x118a <.L8^B1>

0000117a <.L6^B1>:
    117a:	16 16       	cp	r1, r22
    117c:	17 06       	cpc	r1, r23
    117e:	18 06       	cpc	r1, r24
    1180:	99 1f       	adc	r25, r25
    1182:	f1 cf       	rjmp	.-30     	; 0x1166 <.L3^B1>

00001184 <.L7^B1>:
    1184:	86 95       	lsr	r24
    1186:	71 05       	cpc	r23, r1
    1188:	61 05       	cpc	r22, r1

0000118a <.L8^B1>:
    118a:	08 94       	sec
    118c:	08 95       	ret

0000118e <__fp_zero>:
    118e:	e8 94       	clt

00001190 <__fp_szero>:
    1190:	bb 27       	eor	r27, r27
    1192:	66 27       	eor	r22, r22
    1194:	77 27       	eor	r23, r23
    1196:	cb 01       	movw	r24, r22
    1198:	97 f9       	bld	r25, 7
    119a:	08 95       	ret

0000119c <__mulsf3>:
    119c:	0e 94 e1 08 	call	0x11c2	; 0x11c2 <__mulsf3x>
    11a0:	0c 94 94 08 	jmp	0x1128	; 0x1128 <__fp_round>

000011a4 <.L^B1>:
    11a4:	0e 94 86 08 	call	0x110c	; 0x110c <__fp_pscA>
    11a8:	38 f0       	brcs	.+14     	; 0x11b8 <.L1^B1>
    11aa:	0e 94 8d 08 	call	0x111a	; 0x111a <__fp_pscB>
    11ae:	20 f0       	brcs	.+8      	; 0x11b8 <.L1^B1>
    11b0:	95 23       	and	r25, r21
    11b2:	11 f0       	breq	.+4      	; 0x11b8 <.L1^B1>
    11b4:	0c 94 7d 08 	jmp	0x10fa	; 0x10fa <__fp_inf>

000011b8 <.L1^B1>:
    11b8:	0c 94 83 08 	jmp	0x1106	; 0x1106 <__fp_nan>

000011bc <.L2^B1>:
    11bc:	11 24       	eor	r1, r1
    11be:	0c 94 c8 08 	jmp	0x1190	; 0x1190 <__fp_szero>

000011c2 <__mulsf3x>:
    11c2:	0e 94 a5 08 	call	0x114a	; 0x114a <__fp_split3>
    11c6:	70 f3       	brcs	.-36     	; 0x11a4 <.L^B1>

000011c8 <__mulsf3_pse>:
    11c8:	95 9f       	mul	r25, r21
    11ca:	c1 f3       	breq	.-16     	; 0x11bc <.L2^B1>
    11cc:	95 0f       	add	r25, r21
    11ce:	50 e0       	ldi	r21, 0x00	; 0
    11d0:	55 1f       	adc	r21, r21
    11d2:	62 9f       	mul	r22, r18
    11d4:	f0 01       	movw	r30, r0
    11d6:	72 9f       	mul	r23, r18
    11d8:	bb 27       	eor	r27, r27
    11da:	f0 0d       	add	r31, r0
    11dc:	b1 1d       	adc	r27, r1
    11de:	63 9f       	mul	r22, r19
    11e0:	aa 27       	eor	r26, r26
    11e2:	f0 0d       	add	r31, r0
    11e4:	b1 1d       	adc	r27, r1
    11e6:	aa 1f       	adc	r26, r26
    11e8:	64 9f       	mul	r22, r20
    11ea:	66 27       	eor	r22, r22
    11ec:	b0 0d       	add	r27, r0
    11ee:	a1 1d       	adc	r26, r1
    11f0:	66 1f       	adc	r22, r22
    11f2:	82 9f       	mul	r24, r18
    11f4:	22 27       	eor	r18, r18
    11f6:	b0 0d       	add	r27, r0
    11f8:	a1 1d       	adc	r26, r1
    11fa:	62 1f       	adc	r22, r18
    11fc:	73 9f       	mul	r23, r19
    11fe:	b0 0d       	add	r27, r0
    1200:	a1 1d       	adc	r26, r1
    1202:	62 1f       	adc	r22, r18
    1204:	83 9f       	mul	r24, r19
    1206:	a0 0d       	add	r26, r0
    1208:	61 1d       	adc	r22, r1
    120a:	22 1f       	adc	r18, r18
    120c:	74 9f       	mul	r23, r20
    120e:	33 27       	eor	r19, r19
    1210:	a0 0d       	add	r26, r0
    1212:	61 1d       	adc	r22, r1
    1214:	23 1f       	adc	r18, r19
    1216:	84 9f       	mul	r24, r20
    1218:	60 0d       	add	r22, r0
    121a:	21 1d       	adc	r18, r1
    121c:	82 2f       	mov	r24, r18
    121e:	76 2f       	mov	r23, r22
    1220:	6a 2f       	mov	r22, r26
    1222:	11 24       	eor	r1, r1
    1224:	9f 57       	subi	r25, 0x7F	; 127
    1226:	50 40       	sbci	r21, 0x00	; 0
    1228:	9a f0       	brmi	.+38     	; 0x1250 <.L13^B1>
    122a:	f1 f0       	breq	.+60     	; 0x1268 <.L15^B1>

0000122c <.L10^B1>:
    122c:	88 23       	and	r24, r24
    122e:	4a f0       	brmi	.+18     	; 0x1242 <.L11^B1>
    1230:	ee 0f       	add	r30, r30
    1232:	ff 1f       	adc	r31, r31
    1234:	bb 1f       	adc	r27, r27
    1236:	66 1f       	adc	r22, r22
    1238:	77 1f       	adc	r23, r23
    123a:	88 1f       	adc	r24, r24
    123c:	91 50       	subi	r25, 0x01	; 1
    123e:	50 40       	sbci	r21, 0x00	; 0
    1240:	a9 f7       	brne	.-22     	; 0x122c <.L10^B1>

00001242 <.L11^B1>:
    1242:	9e 3f       	cpi	r25, 0xFE	; 254
    1244:	51 05       	cpc	r21, r1
    1246:	80 f0       	brcs	.+32     	; 0x1268 <.L15^B1>
    1248:	0c 94 7d 08 	jmp	0x10fa	; 0x10fa <__fp_inf>

0000124c <.L12^B1>:
    124c:	0c 94 c8 08 	jmp	0x1190	; 0x1190 <__fp_szero>

00001250 <.L13^B1>:
    1250:	5f 3f       	cpi	r21, 0xFF	; 255
    1252:	e4 f3       	brlt	.-8      	; 0x124c <.L12^B1>
    1254:	98 3e       	cpi	r25, 0xE8	; 232
    1256:	d4 f3       	brlt	.-12     	; 0x124c <.L12^B1>

00001258 <.L14^B1>:
    1258:	86 95       	lsr	r24
    125a:	77 95       	ror	r23
    125c:	67 95       	ror	r22
    125e:	b7 95       	ror	r27
    1260:	f7 95       	ror	r31
    1262:	e7 95       	ror	r30
    1264:	9f 5f       	subi	r25, 0xFF	; 255
    1266:	c1 f7       	brne	.-16     	; 0x1258 <.L14^B1>

00001268 <.L15^B1>:
    1268:	fe 2b       	or	r31, r30
    126a:	88 0f       	add	r24, r24
    126c:	91 1d       	adc	r25, r1
    126e:	96 95       	lsr	r25
    1270:	87 95       	ror	r24
    1272:	97 f9       	bld	r25, 7
    1274:	08 95       	ret

00001276 <_exit>:
    1276:	f8 94       	cli

00001278 <__stop_program>:
    1278:	ff cf       	rjmp	.-2      	; 0x1278 <__stop_program>
