
bin\Debug\AGV_project_deel2.elf:     file format elf32-avr

Sections:
Idx Name          Size      VMA       LMA       File off  Algn
  0 .data         00000002  00800200  000011f0  000012a4  2**0
                  CONTENTS, ALLOC, LOAD, DATA
  1 .text         000011f0  00000000  00000000  000000b4  2**1
                  CONTENTS, ALLOC, LOAD, READONLY, CODE
  2 .bss          00000018  00800202  00800202  000012a6  2**0
                  ALLOC
  3 .fuse         00000003  00820000  00820000  000012a6  2**0
                  CONTENTS, ALLOC, LOAD, DATA
  4 .comment      00000012  00000000  00000000  000012a9  2**0
                  CONTENTS, READONLY
  5 .note.gnu.avr.deviceinfo 00000040  00000000  00000000  000012bc  2**2
                  CONTENTS, READONLY, OCTETS
  6 .debug_aranges 00000178  00000000  00000000  00001300  2**3
                  CONTENTS, READONLY, DEBUGGING, OCTETS
  7 .debug_info   00001f7e  00000000  00000000  00001478  2**0
                  CONTENTS, READONLY, DEBUGGING, OCTETS
  8 .debug_abbrev 000012de  00000000  00000000  000033f6  2**0
                  CONTENTS, READONLY, DEBUGGING, OCTETS
  9 .debug_line   00001ce6  00000000  00000000  000046d4  2**0
                  CONTENTS, READONLY, DEBUGGING, OCTETS
 10 .debug_frame  000003a4  00000000  00000000  000063bc  2**2
                  CONTENTS, READONLY, DEBUGGING, OCTETS
 11 .debug_str    00000890  00000000  00000000  00006760  2**0
                  CONTENTS, READONLY, DEBUGGING, OCTETS
 12 .debug_line_str 000002e6  00000000  00000000  00006ff0  2**0
                  CONTENTS, READONLY, DEBUGGING, OCTETS
 13 .debug_loclists 000005ad  00000000  00000000  000072d6  2**0
                  CONTENTS, READONLY, DEBUGGING, OCTETS
 14 .debug_rnglists 0000002c  00000000  00000000  00007883  2**0
                  CONTENTS, READONLY, DEBUGGING, OCTETS

Disassembly of section .text:

00000000 <__vectors>:
       0:	0c 94 72 00 	jmp	0xe4	; 0xe4 <__ctors_end>
       4:	0c 94 b5 00 	jmp	0x16a	; 0x16a <__vector_1>
       8:	0c 94 93 00 	jmp	0x126	; 0x126 <__bad_interrupt>
       c:	0c 94 93 00 	jmp	0x126	; 0x126 <__bad_interrupt>
      10:	0c 94 93 00 	jmp	0x126	; 0x126 <__bad_interrupt>
      14:	0c 94 b8 00 	jmp	0x170	; 0x170 <__vector_5>
      18:	0c 94 93 00 	jmp	0x126	; 0x126 <__bad_interrupt>
      1c:	0c 94 93 00 	jmp	0x126	; 0x126 <__bad_interrupt>
      20:	0c 94 93 00 	jmp	0x126	; 0x126 <__bad_interrupt>
      24:	0c 94 93 00 	jmp	0x126	; 0x126 <__bad_interrupt>
      28:	0c 94 93 00 	jmp	0x126	; 0x126 <__bad_interrupt>
      2c:	0c 94 93 00 	jmp	0x126	; 0x126 <__bad_interrupt>
      30:	0c 94 93 00 	jmp	0x126	; 0x126 <__bad_interrupt>
      34:	0c 94 93 00 	jmp	0x126	; 0x126 <__bad_interrupt>
      38:	0c 94 93 00 	jmp	0x126	; 0x126 <__bad_interrupt>
      3c:	0c 94 93 00 	jmp	0x126	; 0x126 <__bad_interrupt>
      40:	0c 94 93 00 	jmp	0x126	; 0x126 <__bad_interrupt>
      44:	0c 94 93 00 	jmp	0x126	; 0x126 <__bad_interrupt>
      48:	0c 94 93 00 	jmp	0x126	; 0x126 <__bad_interrupt>
      4c:	0c 94 93 00 	jmp	0x126	; 0x126 <__bad_interrupt>
      50:	0c 94 93 00 	jmp	0x126	; 0x126 <__bad_interrupt>
      54:	0c 94 93 00 	jmp	0x126	; 0x126 <__bad_interrupt>
      58:	0c 94 93 00 	jmp	0x126	; 0x126 <__bad_interrupt>
      5c:	0c 94 93 00 	jmp	0x126	; 0x126 <__bad_interrupt>
      60:	0c 94 93 00 	jmp	0x126	; 0x126 <__bad_interrupt>
      64:	0c 94 93 00 	jmp	0x126	; 0x126 <__bad_interrupt>
      68:	0c 94 93 00 	jmp	0x126	; 0x126 <__bad_interrupt>
      6c:	0c 94 93 00 	jmp	0x126	; 0x126 <__bad_interrupt>
      70:	0c 94 93 00 	jmp	0x126	; 0x126 <__bad_interrupt>
      74:	0c 94 93 00 	jmp	0x126	; 0x126 <__bad_interrupt>
      78:	0c 94 93 00 	jmp	0x126	; 0x126 <__bad_interrupt>
      7c:	0c 94 93 00 	jmp	0x126	; 0x126 <__bad_interrupt>
      80:	0c 94 93 00 	jmp	0x126	; 0x126 <__bad_interrupt>
      84:	0c 94 93 00 	jmp	0x126	; 0x126 <__bad_interrupt>
      88:	0c 94 93 00 	jmp	0x126	; 0x126 <__bad_interrupt>
      8c:	0c 94 a0 00 	jmp	0x140	; 0x140 <__vector_35>
      90:	0c 94 93 00 	jmp	0x126	; 0x126 <__bad_interrupt>
      94:	0c 94 93 00 	jmp	0x126	; 0x126 <__bad_interrupt>
      98:	0c 94 93 00 	jmp	0x126	; 0x126 <__bad_interrupt>
      9c:	0c 94 93 00 	jmp	0x126	; 0x126 <__bad_interrupt>
      a0:	0c 94 93 00 	jmp	0x126	; 0x126 <__bad_interrupt>
      a4:	0c 94 93 00 	jmp	0x126	; 0x126 <__bad_interrupt>
      a8:	0c 94 93 00 	jmp	0x126	; 0x126 <__bad_interrupt>
      ac:	0c 94 93 00 	jmp	0x126	; 0x126 <__bad_interrupt>
      b0:	0c 94 93 00 	jmp	0x126	; 0x126 <__bad_interrupt>
      b4:	0c 94 93 00 	jmp	0x126	; 0x126 <__bad_interrupt>
      b8:	0c 94 93 00 	jmp	0x126	; 0x126 <__bad_interrupt>
      bc:	0c 94 93 00 	jmp	0x126	; 0x126 <__bad_interrupt>
      c0:	0c 94 93 00 	jmp	0x126	; 0x126 <__bad_interrupt>
      c4:	0c 94 93 00 	jmp	0x126	; 0x126 <__bad_interrupt>
      c8:	0c 94 93 00 	jmp	0x126	; 0x126 <__bad_interrupt>
      cc:	0c 94 93 00 	jmp	0x126	; 0x126 <__bad_interrupt>
      d0:	0c 94 93 00 	jmp	0x126	; 0x126 <__bad_interrupt>
      d4:	0c 94 93 00 	jmp	0x126	; 0x126 <__bad_interrupt>
      d8:	0c 94 93 00 	jmp	0x126	; 0x126 <__bad_interrupt>
      dc:	0c 94 93 00 	jmp	0x126	; 0x126 <__bad_interrupt>
      e0:	0c 94 93 00 	jmp	0x126	; 0x126 <__bad_interrupt>

000000e4 <__ctors_end>:
      e4:	11 24       	eor	r1, r1
      e6:	1f be       	out	0x3f, r1	; 63
      e8:	cf ef       	ldi	r28, 0xFF	; 255
      ea:	d1 e2       	ldi	r29, 0x21	; 33
      ec:	de bf       	out	0x3e, r29	; 62
      ee:	cd bf       	out	0x3d, r28	; 61
      f0:	00 e0       	ldi	r16, 0x00	; 0
      f2:	0c bf       	out	0x3c, r16	; 60

000000f4 <__do_copy_data>:
      f4:	12 e0       	ldi	r17, 0x02	; 2

000000f6 <.Loc.1>:
      f6:	a0 e0       	ldi	r26, 0x00	; 0

000000f8 <.Loc.2>:
      f8:	b2 e0       	ldi	r27, 0x02	; 2

000000fa <.Loc.3>:
      fa:	e0 ef       	ldi	r30, 0xF0	; 240

000000fc <.Loc.4>:
      fc:	f1 e1       	ldi	r31, 0x11	; 17

000000fe <.Loc.5>:
      fe:	00 e0       	ldi	r16, 0x00	; 0

00000100 <.Loc.6>:
     100:	0b bf       	out	0x3b, r16	; 59

00000102 <.Loc.7>:
     102:	02 c0       	rjmp	.+4      	; 0x108 <.L__do_copy_data_start>

00000104 <.L__do_copy_data_loop>:
     104:	07 90       	elpm	r0, Z+

00000106 <.Loc.9>:
     106:	0d 92       	st	X+, r0

00000108 <.L__do_copy_data_start>:
     108:	a2 30       	cpi	r26, 0x02	; 2

0000010a <.Loc.11>:
     10a:	b1 07       	cpc	r27, r17

0000010c <.Loc.12>:
     10c:	d9 f7       	brne	.-10     	; 0x104 <.L__do_copy_data_loop>

0000010e <__do_clear_bss>:
     10e:	22 e0       	ldi	r18, 0x02	; 2

00000110 <.Loc.1>:
     110:	a2 e0       	ldi	r26, 0x02	; 2

00000112 <.Loc.2>:
     112:	b2 e0       	ldi	r27, 0x02	; 2

00000114 <.Loc.3>:
     114:	01 c0       	rjmp	.+2      	; 0x118 <.Loc.5>

00000116 <.Loc.4>:
     116:	1d 92       	st	X+, r1

00000118 <.Loc.5>:
     118:	aa 31       	cpi	r26, 0x1A	; 26

0000011a <.Loc.6>:
     11a:	b2 07       	cpc	r27, r18

0000011c <.Loc.7>:
     11c:	e1 f7       	brne	.-8      	; 0x116 <.Loc.4>

0000011e <L0^A>:
     11e:	0e 94 4b 01 	call	0x296	; 0x296 <main>
     122:	0c 94 f6 08 	jmp	0x11ec	; 0x11ec <_exit>

00000126 <__bad_interrupt>:
     126:	0c 94 00 00 	jmp	0	; 0x0 <__vectors>

0000012a <acknowledge_agv>:
     12a:	58 9a       	sbi	0x0b, 0	; 11

0000012c <.Loc.3>:
     12c:	10 92 95 00 	sts	0x0095, r1	; 0x800095 <__TEXT_REGION_LENGTH__+0x700095>
     130:	10 92 94 00 	sts	0x0094, r1	; 0x800094 <__TEXT_REGION_LENGTH__+0x700094>

00000134 <.Loc.5>:
     134:	e1 e7       	ldi	r30, 0x71	; 113
     136:	f0 e0       	ldi	r31, 0x00	; 0
     138:	80 81       	ld	r24, Z

0000013a <.Loc.6>:
     13a:	81 60       	ori	r24, 0x01	; 1
     13c:	80 83       	st	Z, r24

0000013e <.Loc.7>:
     13e:	08 95       	ret

00000140 <__vector_35>:
     140:	8f 93       	push	r24
     142:	8f b7       	in	r24, 0x3f	; 63
     144:	8f 93       	push	r24
     146:	8b b7       	in	r24, 0x3b	; 59
     148:	8f 93       	push	r24
     14a:	ef 93       	push	r30
     14c:	ff 93       	push	r31

0000014e <.Loc.10>:
     14e:	58 98       	cbi	0x0b, 0	; 11

00000150 <.Loc.11>:
     150:	e1 e7       	ldi	r30, 0x71	; 113
     152:	f0 e0       	ldi	r31, 0x00	; 0
     154:	80 81       	ld	r24, Z
     156:	8e 7f       	andi	r24, 0xFE	; 254
     158:	80 83       	st	Z, r24

0000015a <.Loc.13>:
     15a:	ff 91       	pop	r31
     15c:	ef 91       	pop	r30
     15e:	8f 91       	pop	r24
     160:	8b bf       	out	0x3b, r24	; 59
     162:	8f 91       	pop	r24
     164:	8f bf       	out	0x3f, r24	; 63
     166:	8f 91       	pop	r24
     168:	18 95       	reti

0000016a <__vector_1>:
     16a:	a1 98       	cbi	0x14, 1	; 20

0000016c <.Loc.3>:
     16c:	5f 98       	cbi	0x0b, 7	; 11

0000016e <.Loc.5>:
     16e:	18 95       	reti

00000170 <__vector_5>:
     170:	1f 92       	push	r1
     172:	0f 92       	push	r0
     174:	0f b6       	in	r0, 0x3f	; 63
     176:	0f 92       	push	r0
     178:	11 24       	eor	r1, r1
     17a:	0b b6       	in	r0, 0x3b	; 59
     17c:	0f 92       	push	r0
     17e:	2f 93       	push	r18
     180:	3f 93       	push	r19
     182:	4f 93       	push	r20
     184:	5f 93       	push	r21
     186:	6f 93       	push	r22
     188:	7f 93       	push	r23
     18a:	8f 93       	push	r24
     18c:	9f 93       	push	r25
     18e:	af 93       	push	r26
     190:	bf 93       	push	r27
     192:	ef 93       	push	r30
     194:	ff 93       	push	r31

00000196 <.Loc.7>:
     196:	81 e0       	ldi	r24, 0x01	; 1
     198:	90 e0       	ldi	r25, 0x00	; 0
     19a:	0e 94 84 03 	call	0x708	; 0x708 <lijnInterrupt>

0000019e <.LVL0>:
     19e:	ff 91       	pop	r31
     1a0:	ef 91       	pop	r30
     1a2:	bf 91       	pop	r27
     1a4:	af 91       	pop	r26
     1a6:	9f 91       	pop	r25
     1a8:	8f 91       	pop	r24
     1aa:	7f 91       	pop	r23
     1ac:	6f 91       	pop	r22
     1ae:	5f 91       	pop	r21
     1b0:	4f 91       	pop	r20
     1b2:	3f 91       	pop	r19
     1b4:	2f 91       	pop	r18
     1b6:	0f 90       	pop	r0
     1b8:	0b be       	out	0x3b, r0	; 59
     1ba:	0f 90       	pop	r0
     1bc:	0f be       	out	0x3f, r0	; 63
     1be:	0f 90       	pop	r0
     1c0:	1f 90       	pop	r1
     1c2:	18 95       	reti

000001c4 <init_rfid_module>:
     1c4:	e1 ea       	ldi	r30, 0xA1	; 161
     1c6:	f0 e0       	ldi	r31, 0x00	; 0
     1c8:	80 81       	ld	r24, Z

000001ca <.Loc.11>:
     1ca:	84 60       	ori	r24, 0x04	; 4
     1cc:	80 83       	st	Z, r24

000001ce <.Loc.12>:
     1ce:	80 81       	ld	r24, Z
     1d0:	8d 7f       	andi	r24, 0xFD	; 253
     1d2:	80 83       	st	Z, r24

000001d4 <.Loc.14>:
     1d4:	80 81       	ld	r24, Z
     1d6:	8e 7f       	andi	r24, 0xFE	; 254
     1d8:	80 83       	st	Z, r24

000001da <.Loc.16>:
     1da:	08 95       	ret

000001dc <init_us_sensor>:
     1dc:	3f 98       	cbi	0x07, 7	; 7

000001de <.Loc.20>:
     1de:	0e 98       	cbi	0x01, 6	; 1

000001e0 <.Loc.22>:
     1e0:	3b 98       	cbi	0x07, 3	; 7

000001e2 <.Loc.24>:
     1e2:	3d 98       	cbi	0x07, 5	; 7

000001e4 <.Loc.26>:
     1e4:	3e 9a       	sbi	0x07, 6	; 7

000001e6 <.Loc.28>:
     1e6:	0f 9a       	sbi	0x01, 7	; 1

000001e8 <.Loc.30>:
     1e8:	3a 9a       	sbi	0x07, 2	; 7

000001ea <.Loc.32>:
     1ea:	3c 9a       	sbi	0x07, 4	; 7

000001ec <.Loc.34>:
     1ec:	47 98       	cbi	0x08, 7	; 8

000001ee <.Loc.36>:
     1ee:	16 98       	cbi	0x02, 6	; 2

000001f0 <.Loc.38>:
     1f0:	43 98       	cbi	0x08, 3	; 8

000001f2 <.Loc.40>:
     1f2:	45 98       	cbi	0x08, 5	; 8

000001f4 <.Loc.42>:
     1f4:	08 95       	ret

000001f6 <init_lijndetectieIR>:
     1f6:	6c 98       	cbi	0x0d, 4	; 13

000001f8 <.Loc.46>:
     1f8:	74 98       	cbi	0x0e, 4	; 14

000001fa <.Loc.48>:
     1fa:	ea e6       	ldi	r30, 0x6A	; 106
     1fc:	f0 e0       	ldi	r31, 0x00	; 0
     1fe:	80 81       	ld	r24, Z

00000200 <.Loc.49>:
     200:	83 60       	ori	r24, 0x03	; 3
     202:	80 83       	st	Z, r24

00000204 <.Loc.50>:
     204:	08 95       	ret

00000206 <init_h_brug_dual>:
     206:	aa e0       	ldi	r26, 0x0A	; 10
     208:	b1 e0       	ldi	r27, 0x01	; 1
     20a:	8c 91       	ld	r24, X

0000020c <.Loc.53>:
     20c:	80 62       	ori	r24, 0x20	; 32
     20e:	8c 93       	st	X, r24

00000210 <.Loc.54>:
     210:	8c 91       	ld	r24, X

00000212 <.Loc.55>:
     212:	88 60       	ori	r24, 0x08	; 8
     214:	8c 93       	st	X, r24

00000216 <.Loc.56>:
     216:	eb e0       	ldi	r30, 0x0B	; 11
     218:	f1 e0       	ldi	r31, 0x01	; 1
     21a:	80 81       	ld	r24, Z
     21c:	8f 7d       	andi	r24, 0xDF	; 223
     21e:	80 83       	st	Z, r24

00000220 <.Loc.58>:
     220:	80 81       	ld	r24, Z
     222:	87 7f       	andi	r24, 0xF7	; 247
     224:	80 83       	st	Z, r24

00000226 <.Loc.60>:
     226:	8c 91       	ld	r24, X

00000228 <.Loc.61>:
     228:	80 64       	ori	r24, 0x40	; 64
     22a:	8c 93       	st	X, r24

0000022c <.Loc.62>:
     22c:	8c 91       	ld	r24, X

0000022e <.Loc.63>:
     22e:	80 61       	ori	r24, 0x10	; 16
     230:	8c 93       	st	X, r24

00000232 <.Loc.64>:
     232:	8c 91       	ld	r24, X

00000234 <.Loc.65>:
     234:	84 60       	ori	r24, 0x04	; 4
     236:	8c 93       	st	X, r24

00000238 <.Loc.66>:
     238:	8c 91       	ld	r24, X

0000023a <.Loc.67>:
     23a:	81 60       	ori	r24, 0x01	; 1
     23c:	8c 93       	st	X, r24

0000023e <.Loc.68>:
     23e:	80 81       	ld	r24, Z
     240:	8f 7b       	andi	r24, 0xBF	; 191
     242:	80 83       	st	Z, r24

00000244 <.Loc.70>:
     244:	80 81       	ld	r24, Z
     246:	8f 7e       	andi	r24, 0xEF	; 239
     248:	80 83       	st	Z, r24

0000024a <.Loc.72>:
     24a:	80 81       	ld	r24, Z
     24c:	8b 7f       	andi	r24, 0xFB	; 251
     24e:	80 83       	st	Z, r24

00000250 <.Loc.74>:
     250:	80 81       	ld	r24, Z
     252:	8e 7f       	andi	r24, 0xFE	; 254
     254:	80 83       	st	Z, r24

00000256 <.Loc.76>:
     256:	08 95       	ret

00000258 <init_communicatie>:
     258:	98 98       	cbi	0x13, 0	; 19

0000025a <.Loc.80>:
     25a:	99 98       	cbi	0x13, 1	; 19

0000025c <.Loc.82>:
     25c:	9a 98       	cbi	0x13, 2	; 19

0000025e <.Loc.84>:
     25e:	38 9a       	sbi	0x07, 0	; 7

00000260 <.Loc.86>:
     260:	50 9a       	sbi	0x0a, 0	; 10

00000262 <.Loc.88>:
     262:	57 9a       	sbi	0x0a, 7	; 10

00000264 <.Loc.90>:
     264:	40 98       	cbi	0x08, 0	; 8

00000266 <.Loc.92>:
     266:	58 98       	cbi	0x0b, 0	; 11

00000268 <.Loc.94>:
     268:	5f 98       	cbi	0x0b, 7	; 11

0000026a <.Loc.96>:
     26a:	a0 98       	cbi	0x14, 0	; 20

0000026c <.Loc.98>:
     26c:	a0 98       	cbi	0x14, 0	; 20

0000026e <.Loc.100>:
     26e:	a2 98       	cbi	0x14, 2	; 20

00000270 <.Loc.102>:
     270:	e8 9a       	sbi	0x1d, 0	; 29

00000272 <.Loc.104>:
     272:	e9 e6       	ldi	r30, 0x69	; 105
     274:	f0 e0       	ldi	r31, 0x00	; 0
     276:	80 81       	ld	r24, Z

00000278 <.Loc.105>:
     278:	83 60       	ori	r24, 0x03	; 3
     27a:	80 83       	st	Z, r24

0000027c <.Loc.106>:
     27c:	08 95       	ret

0000027e <init>:
     27e:	0e 94 e2 00 	call	0x1c4	; 0x1c4 <init_rfid_module>

00000282 <.LVL1>:
     282:	0e 94 ee 00 	call	0x1dc	; 0x1dc <init_us_sensor>

00000286 <.LVL2>:
     286:	0e 94 fb 00 	call	0x1f6	; 0x1f6 <init_lijndetectieIR>

0000028a <.LVL3>:
     28a:	0e 94 03 01 	call	0x206	; 0x206 <init_h_brug_dual>

0000028e <.LVL4>:
     28e:	0e 94 2c 01 	call	0x258	; 0x258 <init_communicatie>

00000292 <.LVL5>:
     292:	78 94       	sei

00000294 <.Loc.114>:
     294:	08 95       	ret

00000296 <main>:


int main(void)
{
    /// hier komt de code voor de AGV ///
    init();
     296:	0e 94 3f 01 	call	0x27e	; 0x27e <init>

0000029a <.LVL0>:
    init_test();
     29a:	0e 94 10 05 	call	0xa20	; 0xa20 <init_test>

0000029e <.L2>:

    while(1){
        test_ontvang();
     29e:	0e 94 4d 05 	call	0xa9a	; 0xa9a <test_ontvang>

000002a2 <.LVL2>:
    while(1){
     2a2:	fd cf       	rjmp	.-6      	; 0x29e <.L2>

000002a4 <motor_R>:
     2a4:	cf 93       	push	r28
     2a6:	df 93       	push	r29
     2a8:	00 d0       	rcall	.+0      	; 0x2aa <L0^A>

000002aa <L0^A>:
     2aa:	0f 92       	push	r0
     2ac:	cd b7       	in	r28, 0x3d	; 61
     2ae:	de b7       	in	r29, 0x3e	; 62

000002b0 <.Loc.2>:
     2b0:	20 e0       	ldi	r18, 0x00	; 0
     2b2:	30 e4       	ldi	r19, 0x40	; 64
     2b4:	4c e9       	ldi	r20, 0x9C	; 156
     2b6:	56 e4       	ldi	r21, 0x46	; 70
     2b8:	69 83       	std	Y+1, r22	; 0x01
     2ba:	7a 83       	std	Y+2, r23	; 0x02
     2bc:	8b 83       	std	Y+3, r24	; 0x03
     2be:	9c 83       	std	Y+4, r25	; 0x04
     2c0:	69 81       	ldd	r22, Y+1	; 0x01
     2c2:	7a 81       	ldd	r23, Y+2	; 0x02
     2c4:	8b 81       	ldd	r24, Y+3	; 0x03
     2c6:	9c 81       	ldd	r25, Y+4	; 0x04

000002c8 <.Loc.4>:
     2c8:	0e 94 89 08 	call	0x1112	; 0x1112 <__mulsf3>

000002cc <.LVL2>:
     2cc:	69 83       	std	Y+1, r22	; 0x01
     2ce:	7a 83       	std	Y+2, r23	; 0x02
     2d0:	8b 83       	std	Y+3, r24	; 0x03
     2d2:	9c 83       	std	Y+4, r25	; 0x04
     2d4:	69 81       	ldd	r22, Y+1	; 0x01
     2d6:	7a 81       	ldd	r23, Y+2	; 0x02
     2d8:	8b 81       	ldd	r24, Y+3	; 0x03
     2da:	9c 81       	ldd	r25, Y+4	; 0x04
     2dc:	0e 94 c5 07 	call	0xf8a	; 0xf8a <__fixsfsi>

000002e0 <.LVL3>:
     2e0:	86 2f       	mov	r24, r22
     2e2:	97 2f       	mov	r25, r23

000002e4 <.Loc.6>:
     2e4:	99 23       	and	r25, r25
     2e6:	5c f0       	brlt	.+22     	; 0x2fe <.L4>

000002e8 <.L2>:
     2e8:	90 93 2d 01 	sts	0x012D, r25	; 0x80012d <__TEXT_REGION_LENGTH__+0x70012d>
     2ec:	80 93 2c 01 	sts	0x012C, r24	; 0x80012c <__TEXT_REGION_LENGTH__+0x70012c>

000002f0 <.Loc.10>:
     2f0:	0f 90       	pop	r0
     2f2:	0f 90       	pop	r0
     2f4:	0f 90       	pop	r0
     2f6:	0f 90       	pop	r0
     2f8:	df 91       	pop	r29
     2fa:	cf 91       	pop	r28
     2fc:	08 95       	ret

000002fe <.L4>:
     2fe:	80 e4       	ldi	r24, 0x40	; 64
     300:	9c e9       	ldi	r25, 0x9C	; 156
     302:	f2 cf       	rjmp	.-28     	; 0x2e8 <.L2>

00000304 <motor_L>:
     304:	cf 93       	push	r28
     306:	df 93       	push	r29
     308:	00 d0       	rcall	.+0      	; 0x30a <L0^A>

0000030a <L0^A>:
     30a:	0f 92       	push	r0
     30c:	cd b7       	in	r28, 0x3d	; 61
     30e:	de b7       	in	r29, 0x3e	; 62

00000310 <.Loc.14>:
     310:	20 e0       	ldi	r18, 0x00	; 0
     312:	30 e4       	ldi	r19, 0x40	; 64
     314:	4c e9       	ldi	r20, 0x9C	; 156
     316:	56 e4       	ldi	r21, 0x46	; 70
     318:	69 83       	std	Y+1, r22	; 0x01
     31a:	7a 83       	std	Y+2, r23	; 0x02
     31c:	8b 83       	std	Y+3, r24	; 0x03
     31e:	9c 83       	std	Y+4, r25	; 0x04
     320:	69 81       	ldd	r22, Y+1	; 0x01
     322:	7a 81       	ldd	r23, Y+2	; 0x02
     324:	8b 81       	ldd	r24, Y+3	; 0x03
     326:	9c 81       	ldd	r25, Y+4	; 0x04

00000328 <.Loc.16>:
     328:	0e 94 89 08 	call	0x1112	; 0x1112 <__mulsf3>

0000032c <.LVL9>:
     32c:	69 83       	std	Y+1, r22	; 0x01
     32e:	7a 83       	std	Y+2, r23	; 0x02
     330:	8b 83       	std	Y+3, r24	; 0x03
     332:	9c 83       	std	Y+4, r25	; 0x04
     334:	69 81       	ldd	r22, Y+1	; 0x01
     336:	7a 81       	ldd	r23, Y+2	; 0x02
     338:	8b 81       	ldd	r24, Y+3	; 0x03
     33a:	9c 81       	ldd	r25, Y+4	; 0x04
     33c:	0e 94 c5 07 	call	0xf8a	; 0xf8a <__fixsfsi>

00000340 <.LVL10>:
     340:	86 2f       	mov	r24, r22
     342:	97 2f       	mov	r25, r23

00000344 <.Loc.18>:
     344:	99 23       	and	r25, r25
     346:	5c f0       	brlt	.+22     	; 0x35e <.L8>

00000348 <.L6>:
     348:	90 93 29 01 	sts	0x0129, r25	; 0x800129 <__TEXT_REGION_LENGTH__+0x700129>
     34c:	80 93 28 01 	sts	0x0128, r24	; 0x800128 <__TEXT_REGION_LENGTH__+0x700128>

00000350 <.Loc.22>:
     350:	0f 90       	pop	r0
     352:	0f 90       	pop	r0
     354:	0f 90       	pop	r0
     356:	0f 90       	pop	r0
     358:	df 91       	pop	r29
     35a:	cf 91       	pop	r28
     35c:	08 95       	ret

0000035e <.L8>:
     35e:	80 e4       	ldi	r24, 0x40	; 64
     360:	9c e9       	ldi	r25, 0x9C	; 156
     362:	f2 cf       	rjmp	.-28     	; 0x348 <.L6>

00000364 <motor_config>:
     364:	28 2f       	mov	r18, r24
     366:	39 2f       	mov	r19, r25
     368:	86 2f       	mov	r24, r22

0000036a <.Loc.26>:
     36a:	97 2f       	mov	r25, r23

0000036c <.Loc.27>:
     36c:	81 30       	cpi	r24, 0x01	; 1
     36e:	91 05       	cpc	r25, r1
     370:	59 f0       	breq	.+22     	; 0x388 <.L17>

00000372 <.Loc.31>:
     372:	89 2b       	or	r24, r25
     374:	41 f4       	brne	.+16     	; 0x386 <.L9>

00000376 <.Loc.33>:
     376:	21 30       	cpi	r18, 0x01	; 1
     378:	31 05       	cpc	r19, r1
     37a:	91 f1       	breq	.+100    	; 0x3e0 <.L15>
     37c:	22 30       	cpi	r18, 0x02	; 2
     37e:	31 05       	cpc	r19, r1
     380:	c1 f1       	breq	.+112    	; 0x3f2 <.L16>
     382:	23 2b       	or	r18, r19
     384:	21 f1       	breq	.+72     	; 0x3ce <.L18>

00000386 <.L9>:
     386:	08 95       	ret

00000388 <.L17>:
     388:	21 30       	cpi	r18, 0x01	; 1
     38a:	31 05       	cpc	r19, r1
     38c:	71 f0       	breq	.+28     	; 0x3aa <.L11>
     38e:	22 30       	cpi	r18, 0x02	; 2
     390:	31 05       	cpc	r19, r1
     392:	a1 f0       	breq	.+40     	; 0x3bc <.L12>
     394:	23 2b       	or	r18, r19
     396:	b9 f7       	brne	.-18     	; 0x386 <.L9>

00000398 <.Loc.36>:
     398:	eb e0       	ldi	r30, 0x0B	; 11
     39a:	f1 e0       	ldi	r31, 0x01	; 1
     39c:	80 81       	ld	r24, Z

0000039e <.Loc.37>:
     39e:	84 60       	ori	r24, 0x04	; 4
     3a0:	80 83       	st	Z, r24

000003a2 <.Loc.38>:
     3a2:	80 81       	ld	r24, Z
     3a4:	8e 7f       	andi	r24, 0xFE	; 254
     3a6:	80 83       	st	Z, r24

000003a8 <.Loc.40>:
     3a8:	08 95       	ret

000003aa <.L11>:
     3aa:	eb e0       	ldi	r30, 0x0B	; 11
     3ac:	f1 e0       	ldi	r31, 0x01	; 1
     3ae:	80 81       	ld	r24, Z

000003b0 <.Loc.43>:
     3b0:	8b 7f       	andi	r24, 0xFB	; 251
     3b2:	80 83       	st	Z, r24

000003b4 <.Loc.44>:
     3b4:	80 81       	ld	r24, Z

000003b6 <.Loc.45>:
     3b6:	81 60       	ori	r24, 0x01	; 1
     3b8:	80 83       	st	Z, r24

000003ba <.Loc.46>:
     3ba:	08 95       	ret

000003bc <.L12>:
     3bc:	eb e0       	ldi	r30, 0x0B	; 11
     3be:	f1 e0       	ldi	r31, 0x01	; 1
     3c0:	80 81       	ld	r24, Z

000003c2 <.Loc.48>:
     3c2:	84 60       	ori	r24, 0x04	; 4
     3c4:	80 83       	st	Z, r24

000003c6 <.Loc.49>:
     3c6:	80 81       	ld	r24, Z

000003c8 <.Loc.50>:
     3c8:	81 60       	ori	r24, 0x01	; 1
     3ca:	80 83       	st	Z, r24

000003cc <.Loc.51>:
     3cc:	08 95       	ret

000003ce <.L18>:
     3ce:	eb e0       	ldi	r30, 0x0B	; 11
     3d0:	f1 e0       	ldi	r31, 0x01	; 1
     3d2:	80 81       	ld	r24, Z

000003d4 <.Loc.53>:
     3d4:	80 64       	ori	r24, 0x40	; 64
     3d6:	80 83       	st	Z, r24

000003d8 <.Loc.54>:
     3d8:	80 81       	ld	r24, Z
     3da:	8f 7e       	andi	r24, 0xEF	; 239
     3dc:	80 83       	st	Z, r24

000003de <.Loc.56>:
     3de:	08 95       	ret

000003e0 <.L15>:
     3e0:	eb e0       	ldi	r30, 0x0B	; 11
     3e2:	f1 e0       	ldi	r31, 0x01	; 1
     3e4:	80 81       	ld	r24, Z

000003e6 <.Loc.59>:
     3e6:	8f 7b       	andi	r24, 0xBF	; 191
     3e8:	80 83       	st	Z, r24

000003ea <.Loc.60>:
     3ea:	80 81       	ld	r24, Z

000003ec <.Loc.61>:
     3ec:	80 61       	ori	r24, 0x10	; 16
     3ee:	80 83       	st	Z, r24

000003f0 <.Loc.62>:
     3f0:	08 95       	ret

000003f2 <.L16>:
     3f2:	eb e0       	ldi	r30, 0x0B	; 11
     3f4:	f1 e0       	ldi	r31, 0x01	; 1
     3f6:	80 81       	ld	r24, Z

000003f8 <.Loc.64>:
     3f8:	80 64       	ori	r24, 0x40	; 64
     3fa:	80 83       	st	Z, r24

000003fc <.Loc.65>:
     3fc:	80 81       	ld	r24, Z

000003fe <.Loc.66>:
     3fe:	80 61       	ori	r24, 0x10	; 16
     400:	80 83       	st	Z, r24

00000402 <.Loc.67>:
     402:	c1 cf       	rjmp	.-126    	; 0x386 <.L9>

00000404 <percentageSteering_R>:
     404:	cf 93       	push	r28
     406:	df 93       	push	r29
     408:	00 d0       	rcall	.+0      	; 0x40a <L0^A>

0000040a <L0^A>:
     40a:	0f 92       	push	r0
     40c:	cd b7       	in	r28, 0x3d	; 61
     40e:	de b7       	in	r29, 0x3e	; 62
     410:	28 2f       	mov	r18, r24
     412:	39 2f       	mov	r19, r25

00000414 <.Loc.2>:
     414:	20 31       	cpi	r18, 0x10	; 16
     416:	31 05       	cpc	r19, r1
     418:	0c f0       	brlt	.+2      	; 0x41c <.Loc.6>

0000041a <L0^A>:
     41a:	41 c0       	rjmp	.+130    	; 0x49e <.L3>

0000041c <.Loc.6>:
     41c:	c9 01       	movw	r24, r18
     41e:	33 0f       	add	r19, r19
     420:	aa 0b       	sbc	r26, r26
     422:	bb 0b       	sbc	r27, r27

00000424 <.Loc.8>:
     424:	89 83       	std	Y+1, r24	; 0x01
     426:	9a 83       	std	Y+2, r25	; 0x02
     428:	ab 83       	std	Y+3, r26	; 0x03
     42a:	bc 83       	std	Y+4, r27	; 0x04
     42c:	bc 01       	movw	r22, r24
     42e:	cd 01       	movw	r24, r26
     430:	0e 94 fd 07 	call	0xffa	; 0xffa <__floatsisf>

00000434 <.LVL2>:
     434:	26 2f       	mov	r18, r22
     436:	37 2f       	mov	r19, r23
     438:	48 2f       	mov	r20, r24
     43a:	59 2f       	mov	r21, r25
     43c:	60 e0       	ldi	r22, 0x00	; 0
     43e:	70 e0       	ldi	r23, 0x00	; 0
     440:	80 e7       	ldi	r24, 0x70	; 112
     442:	91 e4       	ldi	r25, 0x41	; 65
     444:	0e 94 e6 06 	call	0xdcc	; 0xdcc <__subsf3>

00000448 <.LVL3>:
     448:	20 e0       	ldi	r18, 0x00	; 0
     44a:	30 e0       	ldi	r19, 0x00	; 0
     44c:	40 e7       	ldi	r20, 0x70	; 112
     44e:	51 e4       	ldi	r21, 0x41	; 65
     450:	69 83       	std	Y+1, r22	; 0x01
     452:	7a 83       	std	Y+2, r23	; 0x02
     454:	8b 83       	std	Y+3, r24	; 0x03
     456:	9c 83       	std	Y+4, r25	; 0x04
     458:	69 81       	ldd	r22, Y+1	; 0x01
     45a:	7a 81       	ldd	r23, Y+2	; 0x02
     45c:	8b 81       	ldd	r24, Y+3	; 0x03
     45e:	9c 81       	ldd	r25, Y+4	; 0x04
     460:	0e 94 53 07 	call	0xea6	; 0xea6 <__divsf3>

00000464 <.LVL4>:
     464:	36 2f       	mov	r19, r22
     466:	27 2f       	mov	r18, r23

00000468 <.L2>:
     468:	43 2f       	mov	r20, r19
     46a:	52 2f       	mov	r21, r18
     46c:	68 2f       	mov	r22, r24
     46e:	79 2f       	mov	r23, r25
     470:	40 93 16 02 	sts	0x0216, r20	; 0x800216 <percentageAfwijking.10>
     474:	50 93 17 02 	sts	0x0217, r21	; 0x800217 <percentageAfwijking.10+0x1>
     478:	60 93 18 02 	sts	0x0218, r22	; 0x800218 <percentageAfwijking.10+0x2>
     47c:	70 93 19 02 	sts	0x0219, r23	; 0x800219 <percentageAfwijking.10+0x3>

00000480 <.Loc.12>:
     480:	39 83       	std	Y+1, r19	; 0x01
     482:	2a 83       	std	Y+2, r18	; 0x02
     484:	8b 83       	std	Y+3, r24	; 0x03
     486:	9c 83       	std	Y+4, r25	; 0x04
     488:	69 81       	ldd	r22, Y+1	; 0x01
     48a:	7a 81       	ldd	r23, Y+2	; 0x02
     48c:	8b 81       	ldd	r24, Y+3	; 0x03
     48e:	9c 81       	ldd	r25, Y+4	; 0x04
     490:	0f 90       	pop	r0
     492:	0f 90       	pop	r0
     494:	0f 90       	pop	r0
     496:	0f 90       	pop	r0
     498:	df 91       	pop	r29
     49a:	cf 91       	pop	r28
     49c:	08 95       	ret

0000049e <.L3>:
     49e:	30 e0       	ldi	r19, 0x00	; 0
     4a0:	20 e0       	ldi	r18, 0x00	; 0
     4a2:	80 e0       	ldi	r24, 0x00	; 0

000004a4 <.Loc.15>:
     4a4:	90 e0       	ldi	r25, 0x00	; 0
     4a6:	e0 cf       	rjmp	.-64     	; 0x468 <.L2>

000004a8 <percentageSteering_L>:
     4a8:	cf 93       	push	r28
     4aa:	df 93       	push	r29
     4ac:	00 d0       	rcall	.+0      	; 0x4ae <L0^A>

000004ae <L0^A>:
     4ae:	0f 92       	push	r0
     4b0:	cd b7       	in	r28, 0x3d	; 61
     4b2:	de b7       	in	r29, 0x3e	; 62
     4b4:	28 2f       	mov	r18, r24
     4b6:	39 2f       	mov	r19, r25

000004b8 <.Loc.18>:
     4b8:	20 31       	cpi	r18, 0x10	; 16
     4ba:	31 05       	cpc	r19, r1
     4bc:	0c f0       	brlt	.+2      	; 0x4c0 <.Loc.22>

000004be <L0^A>:
     4be:	41 c0       	rjmp	.+130    	; 0x542 <.L6>

000004c0 <.Loc.22>:
     4c0:	c9 01       	movw	r24, r18
     4c2:	33 0f       	add	r19, r19
     4c4:	aa 0b       	sbc	r26, r26
     4c6:	bb 0b       	sbc	r27, r27

000004c8 <.Loc.24>:
     4c8:	89 83       	std	Y+1, r24	; 0x01
     4ca:	9a 83       	std	Y+2, r25	; 0x02
     4cc:	ab 83       	std	Y+3, r26	; 0x03
     4ce:	bc 83       	std	Y+4, r27	; 0x04
     4d0:	bc 01       	movw	r22, r24
     4d2:	cd 01       	movw	r24, r26
     4d4:	0e 94 fd 07 	call	0xffa	; 0xffa <__floatsisf>

000004d8 <.LVL9>:
     4d8:	26 2f       	mov	r18, r22
     4da:	37 2f       	mov	r19, r23
     4dc:	48 2f       	mov	r20, r24
     4de:	59 2f       	mov	r21, r25
     4e0:	60 e0       	ldi	r22, 0x00	; 0
     4e2:	70 e0       	ldi	r23, 0x00	; 0
     4e4:	80 e7       	ldi	r24, 0x70	; 112
     4e6:	91 e4       	ldi	r25, 0x41	; 65
     4e8:	0e 94 e6 06 	call	0xdcc	; 0xdcc <__subsf3>

000004ec <.LVL10>:
     4ec:	20 e0       	ldi	r18, 0x00	; 0
     4ee:	30 e0       	ldi	r19, 0x00	; 0
     4f0:	40 e7       	ldi	r20, 0x70	; 112
     4f2:	51 e4       	ldi	r21, 0x41	; 65
     4f4:	69 83       	std	Y+1, r22	; 0x01
     4f6:	7a 83       	std	Y+2, r23	; 0x02
     4f8:	8b 83       	std	Y+3, r24	; 0x03
     4fa:	9c 83       	std	Y+4, r25	; 0x04
     4fc:	69 81       	ldd	r22, Y+1	; 0x01
     4fe:	7a 81       	ldd	r23, Y+2	; 0x02
     500:	8b 81       	ldd	r24, Y+3	; 0x03
     502:	9c 81       	ldd	r25, Y+4	; 0x04
     504:	0e 94 53 07 	call	0xea6	; 0xea6 <__divsf3>

00000508 <.LVL11>:
     508:	36 2f       	mov	r19, r22
     50a:	27 2f       	mov	r18, r23

0000050c <.L5>:
     50c:	43 2f       	mov	r20, r19
     50e:	52 2f       	mov	r21, r18
     510:	68 2f       	mov	r22, r24
     512:	79 2f       	mov	r23, r25
     514:	40 93 12 02 	sts	0x0212, r20	; 0x800212 <percentageAfwijking.8>
     518:	50 93 13 02 	sts	0x0213, r21	; 0x800213 <percentageAfwijking.8+0x1>
     51c:	60 93 14 02 	sts	0x0214, r22	; 0x800214 <percentageAfwijking.8+0x2>
     520:	70 93 15 02 	sts	0x0215, r23	; 0x800215 <percentageAfwijking.8+0x3>

00000524 <.Loc.28>:
     524:	39 83       	std	Y+1, r19	; 0x01
     526:	2a 83       	std	Y+2, r18	; 0x02
     528:	8b 83       	std	Y+3, r24	; 0x03
     52a:	9c 83       	std	Y+4, r25	; 0x04
     52c:	69 81       	ldd	r22, Y+1	; 0x01
     52e:	7a 81       	ldd	r23, Y+2	; 0x02
     530:	8b 81       	ldd	r24, Y+3	; 0x03
     532:	9c 81       	ldd	r25, Y+4	; 0x04
     534:	0f 90       	pop	r0
     536:	0f 90       	pop	r0
     538:	0f 90       	pop	r0
     53a:	0f 90       	pop	r0
     53c:	df 91       	pop	r29
     53e:	cf 91       	pop	r28
     540:	08 95       	ret

00000542 <.L6>:
     542:	30 e0       	ldi	r19, 0x00	; 0
     544:	20 e0       	ldi	r18, 0x00	; 0
     546:	80 e0       	ldi	r24, 0x00	; 0

00000548 <.Loc.31>:
     548:	90 e0       	ldi	r25, 0x00	; 0
     54a:	e0 cf       	rjmp	.-64     	; 0x50c <.L5>

0000054c <padNavigerenNorm>:
     54c:	0f 93       	push	r16
     54e:	1f 93       	push	r17
     550:	cf 93       	push	r28
     552:	df 93       	push	r29
     554:	00 d0       	rcall	.+0      	; 0x556 <L0^A>

00000556 <L0^A>:
     556:	0f 92       	push	r0
     558:	cd b7       	in	r28, 0x3d	; 61
     55a:	de b7       	in	r29, 0x3e	; 62

0000055c <.LBB6>:
     55c:	10 92 0b 02 	sts	0x020B, r1	; 0x80020b <lijnDetecteerd.4+0x1>
     560:	10 92 0a 02 	sts	0x020A, r1	; 0x80020a <lijnDetecteerd.4>

00000564 <.LBE6>:
     564:	61 e0       	ldi	r22, 0x01	; 1
     566:	70 e0       	ldi	r23, 0x00	; 0
     568:	80 e0       	ldi	r24, 0x00	; 0
     56a:	90 e0       	ldi	r25, 0x00	; 0
     56c:	0e 94 b2 01 	call	0x364	; 0x364 <motor_config>

00000570 <.LVL16>:
     570:	60 e0       	ldi	r22, 0x00	; 0
     572:	70 e0       	ldi	r23, 0x00	; 0
     574:	80 e0       	ldi	r24, 0x00	; 0
     576:	90 e0       	ldi	r25, 0x00	; 0
     578:	0e 94 b2 01 	call	0x364	; 0x364 <motor_config>

0000057c <.LVL17>:
     57c:	60 e0       	ldi	r22, 0x00	; 0
     57e:	70 e0       	ldi	r23, 0x00	; 0
     580:	80 e8       	ldi	r24, 0x80	; 128
     582:	9f e3       	ldi	r25, 0x3F	; 63
     584:	0e 94 82 01 	call	0x304	; 0x304 <motor_L>

00000588 <.LVL18>:
     588:	60 e0       	ldi	r22, 0x00	; 0
     58a:	70 e0       	ldi	r23, 0x00	; 0
     58c:	80 e8       	ldi	r24, 0x80	; 128
     58e:	9f e3       	ldi	r25, 0x3F	; 63
     590:	0e 94 52 01 	call	0x2a4	; 0x2a4 <motor_R>

00000594 <.LVL19>:
     594:	00 e0       	ldi	r16, 0x00	; 0
     596:	10 e0       	ldi	r17, 0x00	; 0

00000598 <.Loc.54>:
     598:	1a 82       	std	Y+2, r1	; 0x02
     59a:	19 82       	std	Y+1, r1	; 0x01
     59c:	23 c0       	rjmp	.+70     	; 0x5e4 <.L8>

0000059e <.L26>:
     59e:	80 e0       	ldi	r24, 0x00	; 0
     5a0:	90 e0       	ldi	r25, 0x00	; 0

000005a2 <.Loc.56>:
     5a2:	03 30       	cpi	r16, 0x03	; 3
     5a4:	11 05       	cpc	r17, r1
     5a6:	24 f4       	brge	.+8      	; 0x5b0 <.L14>
     5a8:	82 e0       	ldi	r24, 0x02	; 2
     5aa:	90 e0       	ldi	r25, 0x00	; 0
     5ac:	80 1b       	sub	r24, r16
     5ae:	91 0b       	sbc	r25, r17

000005b0 <.L14>:
     5b0:	08 0f       	add	r16, r24
     5b2:	19 1f       	adc	r17, r25

000005b4 <.L9>:
     5b4:	0e 94 c0 05 	call	0xb80	; 0xb80 <ultrasoonAfstand_L_VOOR>

000005b8 <.LVL23>:
     5b8:	90 93 11 02 	sts	0x0211, r25	; 0x800211 <afstand_L.7+0x1>
     5bc:	80 93 10 02 	sts	0x0210, r24	; 0x800210 <afstand_L.7>

000005c0 <.Loc.60>:
     5c0:	0e 94 5e 05 	call	0xabc	; 0xabc <ultrasoonAfstand_R_VOOR>

000005c4 <.LVL24>:
     5c4:	90 93 0f 02 	sts	0x020F, r25	; 0x80020f <afstand_R.6+0x1>
     5c8:	80 93 0e 02 	sts	0x020E, r24	; 0x80020e <afstand_R.6>

000005cc <.Loc.63>:
     5cc:	0e 94 5e 05 	call	0xabc	; 0xabc <ultrasoonAfstand_R_VOOR>

000005d0 <.LVL25>:
     5d0:	4f 97       	sbiw	r24, 0x1f	; 31
     5d2:	70 f1       	brcs	.+92     	; 0x630 <.L25>

000005d4 <.L15>:
     5d4:	89 81       	ldd	r24, Y+1	; 0x01
     5d6:	9a 81       	ldd	r25, Y+2	; 0x02
     5d8:	01 96       	adiw	r24, 0x01	; 1
     5da:	9a 83       	std	Y+2, r25	; 0x02
     5dc:	89 83       	std	Y+1, r24	; 0x01

000005de <.Loc.68>:
     5de:	02 97       	sbiw	r24, 0x02	; 2
     5e0:	0c f0       	brlt	.+2      	; 0x5e4 <.L8>

000005e2 <L0^A>:
     5e2:	7d c0       	rjmp	.+250    	; 0x6de <.L18>

000005e4 <.L8>:
     5e4:	80 91 0a 02 	lds	r24, 0x020A	; 0x80020a <lijnDetecteerd.4>
     5e8:	90 91 0b 02 	lds	r25, 0x020B	; 0x80020b <lijnDetecteerd.4+0x1>
     5ec:	89 2b       	or	r24, r25
     5ee:	09 f4       	brne	.+2      	; 0x5f2 <.Loc.76>

000005f0 <L0^A>:
     5f0:	76 c0       	rjmp	.+236    	; 0x6de <.L18>

000005f2 <.Loc.76>:
     5f2:	90 99       	sbic	0x12, 0	; 18
     5f4:	df cf       	rjmp	.-66     	; 0x5b4 <.L9>

000005f6 <.Loc.78>:
     5f6:	91 9b       	sbis	0x12, 1	; 18
     5f8:	dd cf       	rjmp	.-70     	; 0x5b4 <.L9>

000005fa <.Loc.79>:
     5fa:	60 e0       	ldi	r22, 0x00	; 0
     5fc:	70 e0       	ldi	r23, 0x00	; 0
     5fe:	cb 01       	movw	r24, r22
     600:	0e 94 82 01 	call	0x304	; 0x304 <motor_L>

00000604 <.LVL28>:
     604:	60 e0       	ldi	r22, 0x00	; 0
     606:	70 e0       	ldi	r23, 0x00	; 0
     608:	cb 01       	movw	r24, r22
     60a:	0e 94 52 01 	call	0x2a4	; 0x2a4 <motor_R>

0000060e <.LVL29>:
     60e:	0e 94 95 00 	call	0x12a	; 0x12a <acknowledge_agv>

00000612 <.LVL30>:
     612:	10 92 a5 00 	sts	0x00A5, r1	; 0x8000a5 <__TEXT_REGION_LENGTH__+0x7000a5>
     616:	10 92 a4 00 	sts	0x00A4, r1	; 0x8000a4 <__TEXT_REGION_LENGTH__+0x7000a4>

0000061a <.Loc.84>:
     61a:	c8 01       	movw	r24, r16

0000061c <.L11>:
     61c:	82 30       	cpi	r24, 0x02	; 2
     61e:	91 05       	cpc	r25, r1
     620:	0c f0       	brlt	.+2      	; 0x624 <.Loc.87>

00000622 <L0^A>:
     622:	bd cf       	rjmp	.-134    	; 0x59e <.L26>

00000624 <.Loc.87>:
     624:	c8 9b       	sbis	0x19, 0	; 25
     626:	fa cf       	rjmp	.-12     	; 0x61c <.L11>

00000628 <.Loc.89>:
     628:	21 e0       	ldi	r18, 0x01	; 1
     62a:	29 bb       	out	0x19, r18	; 25

0000062c <.Loc.91>:
     62c:	01 96       	adiw	r24, 0x01	; 1

0000062e <.Loc.93>:
     62e:	f6 cf       	rjmp	.-20     	; 0x61c <.L11>

00000630 <.L25>:
     630:	0e 94 c0 05 	call	0xb80	; 0xb80 <ultrasoonAfstand_L_VOOR>

00000634 <.LVL35>:
     634:	4f 97       	sbiw	r24, 0x1f	; 31
     636:	70 f6       	brcc	.-100    	; 0x5d4 <.L15>

00000638 <.Loc.96>:
     638:	20 91 10 02 	lds	r18, 0x0210	; 0x800210 <afstand_L.7>
     63c:	30 91 11 02 	lds	r19, 0x0211	; 0x800211 <afstand_L.7+0x1>
     640:	80 91 0e 02 	lds	r24, 0x020E	; 0x80020e <afstand_R.6>
     644:	90 91 0f 02 	lds	r25, 0x020F	; 0x80020f <afstand_R.6+0x1>

00000648 <.Loc.99>:
     648:	82 17       	cp	r24, r18
     64a:	93 07       	cpc	r25, r19
     64c:	f0 f0       	brcs	.+60     	; 0x68a <.L27>

0000064e <.Loc.100>:
     64e:	28 17       	cp	r18, r24
     650:	39 07       	cpc	r19, r25
     652:	c0 f5       	brcc	.+112    	; 0x6c4 <.L21>

00000654 <.Loc.102>:
     654:	82 1b       	sub	r24, r18
     656:	93 0b       	sbc	r25, r19

00000658 <.Loc.104>:
     658:	90 93 0d 02 	sts	0x020D, r25	; 0x80020d <diffAfstand.5+0x1>
     65c:	80 93 0c 02 	sts	0x020C, r24	; 0x80020c <diffAfstand.5>

00000660 <.Loc.105>:
     660:	0e 94 54 02 	call	0x4a8	; 0x4a8 <percentageSteering_L>

00000664 <.LVL37>:
     664:	69 83       	std	Y+1, r22	; 0x01
     666:	7a 83       	std	Y+2, r23	; 0x02
     668:	8b 83       	std	Y+3, r24	; 0x03
     66a:	9c 83       	std	Y+4, r25	; 0x04
     66c:	69 81       	ldd	r22, Y+1	; 0x01
     66e:	7a 81       	ldd	r23, Y+2	; 0x02
     670:	8b 81       	ldd	r24, Y+3	; 0x03
     672:	9c 81       	ldd	r25, Y+4	; 0x04
     674:	0e 94 82 01 	call	0x304	; 0x304 <motor_L>

00000678 <.LVL38>:
     678:	60 e0       	ldi	r22, 0x00	; 0
     67a:	70 e0       	ldi	r23, 0x00	; 0
     67c:	80 e8       	ldi	r24, 0x80	; 128
     67e:	9f e3       	ldi	r25, 0x3F	; 63
     680:	0e 94 52 01 	call	0x2a4	; 0x2a4 <motor_R>

00000684 <.L20>:
     684:	1a 82       	std	Y+2, r1	; 0x02
     686:	19 82       	std	Y+1, r1	; 0x01

00000688 <.Loc.109>:
     688:	ad cf       	rjmp	.-166    	; 0x5e4 <.L8>

0000068a <.L27>:
     68a:	28 1b       	sub	r18, r24
     68c:	39 0b       	sbc	r19, r25

0000068e <.Loc.112>:
     68e:	30 93 0d 02 	sts	0x020D, r19	; 0x80020d <diffAfstand.5+0x1>
     692:	20 93 0c 02 	sts	0x020C, r18	; 0x80020c <diffAfstand.5>

00000696 <.Loc.113>:
     696:	60 e0       	ldi	r22, 0x00	; 0
     698:	70 e0       	ldi	r23, 0x00	; 0
     69a:	80 e8       	ldi	r24, 0x80	; 128
     69c:	9f e3       	ldi	r25, 0x3F	; 63
     69e:	0e 94 82 01 	call	0x304	; 0x304 <motor_L>

000006a2 <.LVL42>:
     6a2:	80 91 0c 02 	lds	r24, 0x020C	; 0x80020c <diffAfstand.5>
     6a6:	90 91 0d 02 	lds	r25, 0x020D	; 0x80020d <diffAfstand.5+0x1>
     6aa:	0e 94 02 02 	call	0x404	; 0x404 <percentageSteering_R>

000006ae <.LVL43>:
     6ae:	69 83       	std	Y+1, r22	; 0x01
     6b0:	7a 83       	std	Y+2, r23	; 0x02
     6b2:	8b 83       	std	Y+3, r24	; 0x03
     6b4:	9c 83       	std	Y+4, r25	; 0x04
     6b6:	69 81       	ldd	r22, Y+1	; 0x01
     6b8:	7a 81       	ldd	r23, Y+2	; 0x02
     6ba:	8b 81       	ldd	r24, Y+3	; 0x03
     6bc:	9c 81       	ldd	r25, Y+4	; 0x04
     6be:	0e 94 52 01 	call	0x2a4	; 0x2a4 <motor_R>

000006c2 <.LVL44>:
     6c2:	e0 cf       	rjmp	.-64     	; 0x684 <.L20>

000006c4 <.L21>:
     6c4:	60 e0       	ldi	r22, 0x00	; 0
     6c6:	70 e0       	ldi	r23, 0x00	; 0
     6c8:	80 e8       	ldi	r24, 0x80	; 128
     6ca:	9f e3       	ldi	r25, 0x3F	; 63
     6cc:	0e 94 52 01 	call	0x2a4	; 0x2a4 <motor_R>

000006d0 <.LVL45>:
     6d0:	60 e0       	ldi	r22, 0x00	; 0
     6d2:	70 e0       	ldi	r23, 0x00	; 0
     6d4:	80 e8       	ldi	r24, 0x80	; 128
     6d6:	9f e3       	ldi	r25, 0x3F	; 63
     6d8:	0e 94 82 01 	call	0x304	; 0x304 <motor_L>

000006dc <.LVL46>:
     6dc:	d3 cf       	rjmp	.-90     	; 0x684 <.L20>

000006de <.L18>:
     6de:	60 e0       	ldi	r22, 0x00	; 0
     6e0:	70 e0       	ldi	r23, 0x00	; 0
     6e2:	80 e8       	ldi	r24, 0x80	; 128
     6e4:	9f e3       	ldi	r25, 0x3F	; 63
     6e6:	0e 94 52 01 	call	0x2a4	; 0x2a4 <motor_R>

000006ea <.LVL48>:
     6ea:	60 e0       	ldi	r22, 0x00	; 0
     6ec:	70 e0       	ldi	r23, 0x00	; 0
     6ee:	80 e8       	ldi	r24, 0x80	; 128
     6f0:	9f e3       	ldi	r25, 0x3F	; 63
     6f2:	0e 94 82 01 	call	0x304	; 0x304 <motor_L>

000006f6 <.LVL49>:
     6f6:	0f 90       	pop	r0
     6f8:	0f 90       	pop	r0
     6fa:	0f 90       	pop	r0
     6fc:	0f 90       	pop	r0
     6fe:	df 91       	pop	r29
     700:	cf 91       	pop	r28
     702:	1f 91       	pop	r17
     704:	0f 91       	pop	r16

00000706 <.Loc.120>:
     706:	08 95       	ret

00000708 <lijnInterrupt>:
     708:	28 2f       	mov	r18, r24
     70a:	39 2f       	mov	r19, r25

0000070c <.Loc.123>:
     70c:	21 30       	cpi	r18, 0x01	; 1
     70e:	31 05       	cpc	r19, r1
     710:	41 f0       	breq	.+16     	; 0x722 <.L31>

00000712 <.Loc.126>:
     712:	22 30       	cpi	r18, 0x02	; 2
     714:	31 05       	cpc	r19, r1
     716:	61 f0       	breq	.+24     	; 0x730 <.L32>

00000718 <.L30>:
     718:	80 91 0a 02 	lds	r24, 0x020A	; 0x80020a <lijnDetecteerd.4>
     71c:	90 91 0b 02 	lds	r25, 0x020B	; 0x80020b <lijnDetecteerd.4+0x1>
     720:	08 95       	ret

00000722 <.L31>:
     722:	81 e0       	ldi	r24, 0x01	; 1
     724:	90 e0       	ldi	r25, 0x00	; 0

00000726 <.Loc.132>:
     726:	90 93 0b 02 	sts	0x020B, r25	; 0x80020b <lijnDetecteerd.4+0x1>
     72a:	80 93 0a 02 	sts	0x020A, r24	; 0x80020a <lijnDetecteerd.4>
     72e:	f4 cf       	rjmp	.-24     	; 0x718 <.L30>

00000730 <.L32>:
     730:	10 92 0b 02 	sts	0x020B, r1	; 0x80020b <lijnDetecteerd.4+0x1>
     734:	10 92 0a 02 	sts	0x020A, r1	; 0x80020a <lijnDetecteerd.4>
     738:	ef cf       	rjmp	.-34     	; 0x718 <.L30>

0000073a <padNavigerenKant>:
     73a:	ef 92       	push	r14
     73c:	ff 92       	push	r15
     73e:	0f 93       	push	r16
     740:	1f 93       	push	r17
     742:	cf 93       	push	r28
     744:	df 93       	push	r29
     746:	00 d0       	rcall	.+0      	; 0x748 <L0^A>

00000748 <L0^A>:
     748:	00 d0       	rcall	.+0      	; 0x74a <L0^A>

0000074a <L0^A>:
     74a:	cd b7       	in	r28, 0x3d	; 61
     74c:	de b7       	in	r29, 0x3e	; 62
     74e:	08 2f       	mov	r16, r24
     750:	19 2f       	mov	r17, r25
     752:	6d 83       	std	Y+5, r22	; 0x05
     754:	79 83       	std	Y+1, r23	; 0x01

00000756 <.Loc.137>:
     756:	61 e0       	ldi	r22, 0x01	; 1
     758:	70 e0       	ldi	r23, 0x00	; 0

0000075a <.Loc.143>:
     75a:	8d 81       	ldd	r24, Y+5	; 0x05

0000075c <.Loc.144>:
     75c:	99 81       	ldd	r25, Y+1	; 0x01
     75e:	0e 94 b2 01 	call	0x364	; 0x364 <motor_config>

00000762 <.LVL60>:
     762:	60 e0       	ldi	r22, 0x00	; 0
     764:	70 e0       	ldi	r23, 0x00	; 0
     766:	8d 81       	ldd	r24, Y+5	; 0x05
     768:	99 81       	ldd	r25, Y+1	; 0x01
     76a:	0e 94 b2 01 	call	0x364	; 0x364 <motor_config>

0000076e <.LVL61>:
     76e:	60 e0       	ldi	r22, 0x00	; 0
     770:	70 e0       	ldi	r23, 0x00	; 0
     772:	80 e8       	ldi	r24, 0x80	; 128
     774:	9f e3       	ldi	r25, 0x3F	; 63
     776:	0e 94 82 01 	call	0x304	; 0x304 <motor_L>

0000077a <.LVL62>:
     77a:	60 e0       	ldi	r22, 0x00	; 0
     77c:	70 e0       	ldi	r23, 0x00	; 0
     77e:	80 e8       	ldi	r24, 0x80	; 128
     780:	9f e3       	ldi	r25, 0x3F	; 63
     782:	0e 94 52 01 	call	0x2a4	; 0x2a4 <motor_R>

00000786 <.LVL63>:
     786:	ee 24       	eor	r14, r14
     788:	e3 94       	inc	r14
     78a:	f1 2c       	mov	r15, r1
     78c:	9e c0       	rjmp	.+316    	; 0x8ca <.L41>

0000078e <.L49>:
     78e:	0e 94 c0 05 	call	0xb80	; 0xb80 <ultrasoonAfstand_L_VOOR>

00000792 <.LVL64>:
     792:	90 93 09 02 	sts	0x0209, r25	; 0x800209 <afstandVoor.3+0x1>
     796:	80 93 08 02 	sts	0x0208, r24	; 0x800208 <afstandVoor.3>

0000079a <.Loc.153>:
     79a:	0e 94 84 06 	call	0xd08	; 0xd08 <ultrasoonAfstand_L_ACHTER>

0000079e <.LVL65>:
     79e:	90 93 07 02 	sts	0x0207, r25	; 0x800207 <afstandAchter.2+0x1>
     7a2:	80 93 06 02 	sts	0x0206, r24	; 0x800206 <afstandAchter.2>

000007a6 <.Loc.156>:
     7a6:	0e 94 5e 05 	call	0xabc	; 0xabc <ultrasoonAfstand_R_VOOR>

000007aa <.LVL66>:
     7aa:	28 2f       	mov	r18, r24
     7ac:	39 2f       	mov	r19, r25

000007ae <.Loc.158>:
     7ae:	80 91 04 02 	lds	r24, 0x0204	; 0x800204 <bijGat.1>
     7b2:	90 91 05 02 	lds	r25, 0x0205	; 0x800205 <bijGat.1+0x1>
     7b6:	9e 83       	std	Y+6, r25	; 0x06
     7b8:	8d 83       	std	Y+5, r24	; 0x05

000007ba <.Loc.160>:
     7ba:	89 2b       	or	r24, r25
     7bc:	69 f4       	brne	.+26     	; 0x7d8 <.L35>

000007be <.Loc.161>:
     7be:	2f 31       	cpi	r18, 0x1F	; 31
     7c0:	31 05       	cpc	r19, r1
     7c2:	0c f4       	brge	.+2      	; 0x7c6 <.Loc.162>

000007c4 <L0^A>:
     7c4:	45 c0       	rjmp	.+138    	; 0x850 <.L42>

000007c6 <.Loc.162>:
     7c6:	81 e0       	ldi	r24, 0x01	; 1
     7c8:	90 e0       	ldi	r25, 0x00	; 0
     7ca:	90 93 05 02 	sts	0x0205, r25	; 0x800205 <bijGat.1+0x1>
     7ce:	80 93 04 02 	sts	0x0204, r24	; 0x800204 <bijGat.1>
     7d2:	9e 83       	std	Y+6, r25	; 0x06
     7d4:	8d 83       	std	Y+5, r24	; 0x05
     7d6:	83 c0       	rjmp	.+262    	; 0x8de <.L36>

000007d8 <.L35>:
     7d8:	8d 81       	ldd	r24, Y+5	; 0x05
     7da:	9e 81       	ldd	r25, Y+6	; 0x06
     7dc:	01 97       	sbiw	r24, 0x01	; 1
     7de:	e9 f5       	brne	.+122    	; 0x85a <.L43>

000007e0 <.Loc.166>:
     7e0:	2e 31       	cpi	r18, 0x1E	; 30
     7e2:	31 05       	cpc	r19, r1
     7e4:	0c f0       	brlt	.+2      	; 0x7e8 <.Loc.167>

000007e6 <L0^A>:
     7e6:	7b c0       	rjmp	.+246    	; 0x8de <.L36>

000007e8 <.Loc.167>:
     7e8:	ec 9a       	sbi	0x1d, 4	; 29

000007ea <.Loc.169>:
     7ea:	1e 83       	std	Y+6, r17	; 0x06
     7ec:	0d 83       	std	Y+5, r16	; 0x05
     7ee:	77 c0       	rjmp	.+238    	; 0x8de <.L36>

000007f0 <.L50>:
     7f0:	0e 94 5e 05 	call	0xabc	; 0xabc <ultrasoonAfstand_R_VOOR>

000007f4 <.LVL70>:
     7f4:	90 93 09 02 	sts	0x0209, r25	; 0x800209 <afstandVoor.3+0x1>
     7f8:	80 93 08 02 	sts	0x0208, r24	; 0x800208 <afstandVoor.3>

000007fc <.Loc.175>:
     7fc:	0e 94 22 06 	call	0xc44	; 0xc44 <ultrasoonAfstand_R_ACHTER>

00000800 <.LVL71>:
     800:	90 93 07 02 	sts	0x0207, r25	; 0x800207 <afstandAchter.2+0x1>
     804:	80 93 06 02 	sts	0x0206, r24	; 0x800206 <afstandAchter.2>

00000808 <.Loc.178>:
     808:	0e 94 c0 05 	call	0xb80	; 0xb80 <ultrasoonAfstand_L_VOOR>

0000080c <.LVL72>:
     80c:	28 2f       	mov	r18, r24
     80e:	39 2f       	mov	r19, r25

00000810 <.Loc.180>:
     810:	80 91 04 02 	lds	r24, 0x0204	; 0x800204 <bijGat.1>
     814:	90 91 05 02 	lds	r25, 0x0205	; 0x800205 <bijGat.1+0x1>
     818:	9e 83       	std	Y+6, r25	; 0x06
     81a:	8d 83       	std	Y+5, r24	; 0x05

0000081c <.Loc.182>:
     81c:	89 2b       	or	r24, r25
     81e:	61 f4       	brne	.+24     	; 0x838 <.L37>

00000820 <.Loc.183>:
     820:	2f 31       	cpi	r18, 0x1F	; 31
     822:	31 05       	cpc	r19, r1
     824:	fc f0       	brlt	.+62     	; 0x864 <.L45>

00000826 <.Loc.184>:
     826:	81 e0       	ldi	r24, 0x01	; 1
     828:	90 e0       	ldi	r25, 0x00	; 0
     82a:	90 93 05 02 	sts	0x0205, r25	; 0x800205 <bijGat.1+0x1>
     82e:	80 93 04 02 	sts	0x0204, r24	; 0x800204 <bijGat.1>
     832:	1e 83       	std	Y+6, r17	; 0x06
     834:	0d 83       	std	Y+5, r16	; 0x05
     836:	53 c0       	rjmp	.+166    	; 0x8de <.L36>

00000838 <.L37>:
     838:	8d 81       	ldd	r24, Y+5	; 0x05
     83a:	9e 81       	ldd	r25, Y+6	; 0x06
     83c:	01 97       	sbiw	r24, 0x01	; 1
     83e:	a9 f4       	brne	.+42     	; 0x86a <.L46>

00000840 <.Loc.188>:
     840:	2e 31       	cpi	r18, 0x1E	; 30
     842:	31 05       	cpc	r19, r1
     844:	0c f0       	brlt	.+2      	; 0x848 <.Loc.189>

00000846 <L0^A>:
     846:	4b c0       	rjmp	.+150    	; 0x8de <.L36>

00000848 <.Loc.189>:
     848:	ec 9a       	sbi	0x1d, 4	; 29

0000084a <.Loc.191>:
     84a:	1e 82       	std	Y+6, r1	; 0x06
     84c:	1d 82       	std	Y+5, r1	; 0x05
     84e:	47 c0       	rjmp	.+142    	; 0x8de <.L36>

00000850 <.L42>:
     850:	81 e0       	ldi	r24, 0x01	; 1
     852:	90 e0       	ldi	r25, 0x00	; 0
     854:	9e 83       	std	Y+6, r25	; 0x06
     856:	8d 83       	std	Y+5, r24	; 0x05
     858:	42 c0       	rjmp	.+132    	; 0x8de <.L36>

0000085a <.L43>:
     85a:	81 e0       	ldi	r24, 0x01	; 1
     85c:	90 e0       	ldi	r25, 0x00	; 0
     85e:	9e 83       	std	Y+6, r25	; 0x06
     860:	8d 83       	std	Y+5, r24	; 0x05
     862:	3d c0       	rjmp	.+122    	; 0x8de <.L36>

00000864 <.L45>:
     864:	1e 83       	std	Y+6, r17	; 0x06
     866:	0d 83       	std	Y+5, r16	; 0x05
     868:	3a c0       	rjmp	.+116    	; 0x8de <.L36>

0000086a <.L46>:
     86a:	1e 83       	std	Y+6, r17	; 0x06
     86c:	0d 83       	std	Y+5, r16	; 0x05
     86e:	37 c0       	rjmp	.+110    	; 0x8de <.L36>

00000870 <.L51>:
     870:	28 1b       	sub	r18, r24
     872:	39 0b       	sbc	r19, r25

00000874 <.Loc.198>:
     874:	30 93 03 02 	sts	0x0203, r19	; 0x800203 <diffAfstand.0+0x1>
     878:	20 93 02 02 	sts	0x0202, r18	; 0x800202 <diffAfstand.0>

0000087c <.Loc.199>:
     87c:	60 e0       	ldi	r22, 0x00	; 0
     87e:	70 e0       	ldi	r23, 0x00	; 0
     880:	80 e8       	ldi	r24, 0x80	; 128
     882:	9f e3       	ldi	r25, 0x3F	; 63
     884:	0e 94 82 01 	call	0x304	; 0x304 <motor_L>

00000888 <.LVL78>:
     888:	80 91 02 02 	lds	r24, 0x0202	; 0x800202 <diffAfstand.0>
     88c:	90 91 03 02 	lds	r25, 0x0203	; 0x800203 <diffAfstand.0+0x1>
     890:	0e 94 02 02 	call	0x404	; 0x404 <percentageSteering_R>

00000894 <.LVL79>:
     894:	69 83       	std	Y+1, r22	; 0x01
     896:	7a 83       	std	Y+2, r23	; 0x02
     898:	8b 83       	std	Y+3, r24	; 0x03
     89a:	9c 83       	std	Y+4, r25	; 0x04
     89c:	69 81       	ldd	r22, Y+1	; 0x01
     89e:	7a 81       	ldd	r23, Y+2	; 0x02
     8a0:	8b 81       	ldd	r24, Y+3	; 0x03
     8a2:	9c 81       	ldd	r25, Y+4	; 0x04
     8a4:	0e 94 52 01 	call	0x2a4	; 0x2a4 <motor_R>

000008a8 <.LVL80>:
     8a8:	0c c0       	rjmp	.+24     	; 0x8c2 <.L39>

000008aa <.L40>:
     8aa:	60 e0       	ldi	r22, 0x00	; 0
     8ac:	70 e0       	ldi	r23, 0x00	; 0
     8ae:	80 e8       	ldi	r24, 0x80	; 128
     8b0:	9f e3       	ldi	r25, 0x3F	; 63
     8b2:	0e 94 52 01 	call	0x2a4	; 0x2a4 <motor_R>

000008b6 <.LVL81>:
     8b6:	60 e0       	ldi	r22, 0x00	; 0
     8b8:	70 e0       	ldi	r23, 0x00	; 0
     8ba:	80 e8       	ldi	r24, 0x80	; 128
     8bc:	9f e3       	ldi	r25, 0x3F	; 63
     8be:	0e 94 82 01 	call	0x304	; 0x304 <motor_L>

000008c2 <.L39>:
     8c2:	8d 81       	ldd	r24, Y+5	; 0x05
     8c4:	9e 81       	ldd	r25, Y+6	; 0x06
     8c6:	89 2b       	or	r24, r25
     8c8:	91 f1       	breq	.+100    	; 0x92e <.L48>

000008ca <.L41>:
     8ca:	01 15       	cp	r16, r1
     8cc:	11 05       	cpc	r17, r1
     8ce:	09 f4       	brne	.+2      	; 0x8d2 <.Loc.206>

000008d0 <L0^A>:
     8d0:	5e cf       	rjmp	.-324    	; 0x78e <.L49>

000008d2 <.Loc.206>:
     8d2:	01 30       	cpi	r16, 0x01	; 1
     8d4:	11 05       	cpc	r17, r1
     8d6:	09 f4       	brne	.+2      	; 0x8da <L0^A+0x2>

000008d8 <L0^A>:
     8d8:	8b cf       	rjmp	.-234    	; 0x7f0 <.L50>
     8da:	ed 82       	std	Y+5, r14	; 0x05
     8dc:	fe 82       	std	Y+6, r15	; 0x06

000008de <.L36>:
     8de:	20 91 08 02 	lds	r18, 0x0208	; 0x800208 <afstandVoor.3>
     8e2:	30 91 09 02 	lds	r19, 0x0209	; 0x800209 <afstandVoor.3+0x1>
     8e6:	80 91 06 02 	lds	r24, 0x0206	; 0x800206 <afstandAchter.2>
     8ea:	90 91 07 02 	lds	r25, 0x0207	; 0x800207 <afstandAchter.2+0x1>

000008ee <.Loc.211>:
     8ee:	82 17       	cp	r24, r18
     8f0:	93 07       	cpc	r25, r19
     8f2:	08 f4       	brcc	.+2      	; 0x8f6 <.Loc.212>

000008f4 <L0^A>:
     8f4:	bd cf       	rjmp	.-134    	; 0x870 <.L51>

000008f6 <.Loc.212>:
     8f6:	28 17       	cp	r18, r24
     8f8:	39 07       	cpc	r19, r25
     8fa:	b8 f6       	brcc	.-82     	; 0x8aa <.L40>

000008fc <.Loc.214>:
     8fc:	82 1b       	sub	r24, r18
     8fe:	93 0b       	sbc	r25, r19

00000900 <.Loc.216>:
     900:	90 93 03 02 	sts	0x0203, r25	; 0x800203 <diffAfstand.0+0x1>
     904:	80 93 02 02 	sts	0x0202, r24	; 0x800202 <diffAfstand.0>

00000908 <.Loc.217>:
     908:	0e 94 54 02 	call	0x4a8	; 0x4a8 <percentageSteering_L>

0000090c <.LVL85>:
     90c:	69 83       	std	Y+1, r22	; 0x01
     90e:	7a 83       	std	Y+2, r23	; 0x02
     910:	8b 83       	std	Y+3, r24	; 0x03
     912:	9c 83       	std	Y+4, r25	; 0x04
     914:	69 81       	ldd	r22, Y+1	; 0x01
     916:	7a 81       	ldd	r23, Y+2	; 0x02
     918:	8b 81       	ldd	r24, Y+3	; 0x03
     91a:	9c 81       	ldd	r25, Y+4	; 0x04
     91c:	0e 94 82 01 	call	0x304	; 0x304 <motor_L>

00000920 <.LVL86>:
     920:	60 e0       	ldi	r22, 0x00	; 0
     922:	70 e0       	ldi	r23, 0x00	; 0
     924:	80 e8       	ldi	r24, 0x80	; 128
     926:	9f e3       	ldi	r25, 0x3F	; 63
     928:	0e 94 52 01 	call	0x2a4	; 0x2a4 <motor_R>

0000092c <.LVL87>:
     92c:	ca cf       	rjmp	.-108    	; 0x8c2 <.L39>

0000092e <.L48>:
     92e:	0f 90       	pop	r0
     930:	0f 90       	pop	r0
     932:	0f 90       	pop	r0
     934:	0f 90       	pop	r0
     936:	0f 90       	pop	r0
     938:	0f 90       	pop	r0
     93a:	df 91       	pop	r29
     93c:	cf 91       	pop	r28
     93e:	1f 91       	pop	r17
     940:	0f 91       	pop	r16
     942:	ff 90       	pop	r15
     944:	ef 90       	pop	r14
     946:	08 95       	ret

00000948 <kerenR>:
     948:	af 92       	push	r10
     94a:	bf 92       	push	r11
     94c:	cf 92       	push	r12
     94e:	df 92       	push	r13
     950:	ff 92       	push	r15
     952:	0f 93       	push	r16
     954:	1f 93       	push	r17
     956:	cf 93       	push	r28
     958:	df 93       	push	r29

0000095a <.Loc.221>:
     95a:	02 eb       	ldi	r16, 0xB2	; 178
     95c:	10 e0       	ldi	r17, 0x00	; 0
     95e:	c6 e0       	ldi	r28, 0x06	; 6

00000960 <.Loc.226>:
     960:	0f 2e       	mov	r0, r31
     962:	f0 eb       	ldi	r31, 0xB0	; 176
     964:	af 2e       	mov	r10, r31
     966:	b1 2c       	mov	r11, r1
     968:	f0 2d       	mov	r31, r0

0000096a <.Loc.227>:
     96a:	0f 2e       	mov	r0, r31
     96c:	f1 eb       	ldi	r31, 0xB1	; 177
     96e:	cf 2e       	mov	r12, r31
     970:	d1 2c       	mov	r13, r1
     972:	f0 2d       	mov	r31, r0
     974:	0f 2e       	mov	r0, r31
     976:	f3 e0       	ldi	r31, 0x03	; 3
     978:	ff 2e       	mov	r15, r31
     97a:	f0 2d       	mov	r31, r0

0000097c <.Loc.228>:
     97c:	d1 e0       	ldi	r29, 0x01	; 1

0000097e <.Loc.229>:
     97e:	20 c0       	rjmp	.+64     	; 0x9c0 <.L53>

00000980 <.L64>:
     980:	d7 bb       	out	0x17, r29	; 23

00000982 <.Loc.232>:
     982:	f8 01       	movw	r30, r16
     984:	c0 83       	st	Z, r28

00000986 <.Loc.234>:
     986:	60 e0       	ldi	r22, 0x00	; 0
     988:	70 e0       	ldi	r23, 0x00	; 0
     98a:	80 e8       	ldi	r24, 0x80	; 128
     98c:	9f e3       	ldi	r25, 0x3F	; 63
     98e:	0e 94 82 01 	call	0x304	; 0x304 <motor_L>

00000992 <.LVL91>:
     992:	60 e0       	ldi	r22, 0x00	; 0
     994:	70 e0       	ldi	r23, 0x00	; 0
     996:	80 e8       	ldi	r24, 0x80	; 128
     998:	9f e3       	ldi	r25, 0x3F	; 63
     99a:	0e 94 52 01 	call	0x2a4	; 0x2a4 <motor_R>

0000099e <.LVL92>:
     99e:	f8 01       	movw	r30, r16
     9a0:	c0 83       	st	Z, r28

000009a2 <.Loc.239>:
     9a2:	80 e9       	ldi	r24, 0x90	; 144
     9a4:	91 e0       	ldi	r25, 0x01	; 1

000009a6 <.L58>:
     9a6:	b8 9b       	sbis	0x17, 0	; 23
     9a8:	fe cf       	rjmp	.-4      	; 0x9a6 <.L58>

000009aa <.Loc.244>:
     9aa:	01 97       	sbiw	r24, 0x01	; 1

000009ac <.Loc.246>:
     9ac:	00 97       	sbiw	r24, 0x00	; 0
     9ae:	21 f0       	breq	.+8      	; 0x9b8 <.L59>

000009b0 <.Loc.247>:
     9b0:	d7 bb       	out	0x17, r29	; 23

000009b2 <.Loc.249>:
     9b2:	f8 01       	movw	r30, r16
     9b4:	c0 83       	st	Z, r28
     9b6:	f7 cf       	rjmp	.-18     	; 0x9a6 <.L58>

000009b8 <.L59>:
     9b8:	0e 94 c0 05 	call	0xb80	; 0xb80 <ultrasoonAfstand_L_VOOR>

000009bc <.LVL98>:
     9bc:	44 97       	sbiw	r24, 0x14	; 20
     9be:	e0 f0       	brcs	.+56     	; 0x9f8 <.L63>

000009c0 <.L53>:
     9c0:	f8 01       	movw	r30, r16
     9c2:	c0 83       	st	Z, r28

000009c4 <.Loc.258>:
     9c4:	f5 01       	movw	r30, r10
     9c6:	10 82       	st	Z, r1

000009c8 <.Loc.260>:
     9c8:	f6 01       	movw	r30, r12
     9ca:	f0 82       	st	Z, r15

000009cc <.Loc.262>:
     9cc:	60 e0       	ldi	r22, 0x00	; 0
     9ce:	70 e0       	ldi	r23, 0x00	; 0
     9d0:	cb 01       	movw	r24, r22
     9d2:	0e 94 82 01 	call	0x304	; 0x304 <motor_L>

000009d6 <.LVL100>:
     9d6:	60 e0       	ldi	r22, 0x00	; 0
     9d8:	70 e0       	ldi	r23, 0x00	; 0
     9da:	80 e8       	ldi	r24, 0x80	; 128
     9dc:	9f e3       	ldi	r25, 0x3F	; 63
     9de:	0e 94 52 01 	call	0x2a4	; 0x2a4 <motor_R>

000009e2 <.LVL101>:
     9e2:	84 ef       	ldi	r24, 0xF4	; 244
     9e4:	91 e0       	ldi	r25, 0x01	; 1

000009e6 <.L54>:
     9e6:	b8 9b       	sbis	0x17, 0	; 23
     9e8:	fe cf       	rjmp	.-4      	; 0x9e6 <.L54>

000009ea <.Loc.269>:
     9ea:	01 97       	sbiw	r24, 0x01	; 1

000009ec <.Loc.271>:
     9ec:	00 97       	sbiw	r24, 0x00	; 0
     9ee:	41 f2       	breq	.-112    	; 0x980 <.L64>

000009f0 <.Loc.272>:
     9f0:	d7 bb       	out	0x17, r29	; 23

000009f2 <.Loc.274>:
     9f2:	f8 01       	movw	r30, r16
     9f4:	c0 83       	st	Z, r28
     9f6:	f7 cf       	rjmp	.-18     	; 0x9e6 <.L54>

000009f8 <.L63>:
     9f8:	df 91       	pop	r29
     9fa:	cf 91       	pop	r28
     9fc:	1f 91       	pop	r17
     9fe:	0f 91       	pop	r16
     a00:	ff 90       	pop	r15
     a02:	df 90       	pop	r13
     a04:	cf 90       	pop	r12
     a06:	bf 90       	pop	r11
     a08:	af 90       	pop	r10
     a0a:	08 95       	ret

00000a0c <rfid_module>:
     a0c:	91 9b       	sbis	0x12, 1	; 18
     a0e:	fe cf       	rjmp	.-4      	; 0xa0c <rfid_module>

00000a10 <.Loc.3>:
     a10:	0e 94 95 00 	call	0x12a	; 0x12a <acknowledge_agv>

00000a14 <.LVL0>:
     a14:	0e 94 a6 02 	call	0x54c	; 0x54c <padNavigerenNorm>

00000a18 <.LVL1>:
     a18:	40 9a       	sbi	0x08, 0	; 8

00000a1a <.Loc.7>:
     a1a:	0e 94 a4 04 	call	0x948	; 0x948 <kerenR>

00000a1e <.LVL2>:
     a1e:	08 95       	ret

00000a20 <init_test>:



void init_test(void){

    DDRB |= (1 << PB7);
     a20:	27 9a       	sbi	0x04, 7	; 4

00000a22 <.Loc.3>:
    DDRB |= (1 << PB6);
     a22:	26 9a       	sbi	0x04, 6	; 4

00000a24 <.Loc.5>:

    PORTB |= (1 << PB7); // uit
     a24:	2f 9a       	sbi	0x05, 7	; 5

00000a26 <.Loc.7>:
    PORTB |= (1 << PB6); // uit
     a26:	2e 9a       	sbi	0x05, 6	; 5

00000a28 <.Loc.10>:

//    DDRB |= (1 << PB5);
//    DDRB |= (1 << PB4);

    DDRF &= ~(1 << PF1);
     a28:	81 98       	cbi	0x10, 1	; 16

00000a2a <.Loc.11>:
    DDRF &= ~(1 << PF2);
     a2a:	82 98       	cbi	0x10, 2	; 16

00000a2c <.Loc.13>:
    DDRF &= ~(1 << PF3);
     a2c:	83 98       	cbi	0x10, 3	; 16

00000a2e <.Loc.15>:
}
     a2e:	08 95       	ret

00000a30 <test>:
void test(void){

    //static int pressed = 0;
    static int released = 1;

    if (((PINF & (1 << PF1)) != 0)&& released == 0)   // Schakkel check S2 Losgelaten
     a30:	79 9b       	sbis	0x0f, 1	; 15
     a32:	1a c0       	rjmp	.+52     	; 0xa68 <.L3>

00000a34 <.Loc.20>:
     a34:	80 91 00 02 	lds	r24, 0x0200	; 0x800200 <released.0>
     a38:	90 91 01 02 	lds	r25, 0x0201	; 0x800201 <released.0+0x1>
     a3c:	89 2b       	or	r24, r25
     a3e:	a1 f4       	brne	.+40     	; 0xa68 <.L3>

00000a40 <.Loc.21>:
    {
        PORTB |= (1 << PB7);
     a40:	2f 9a       	sbi	0x05, 7	; 5

00000a42 <.Loc.23>:
        PORTB |= (1 << PB6);      // Led Groen off
     a42:	2e 9a       	sbi	0x05, 6	; 5

00000a44 <.LBB8>:
	#else
		//round up by default
		__ticks_dc = (uint32_t)(ceil(fabs(__tmp)));
	#endif

	__builtin_avr_delay_cycles(__ticks_dc);
     a44:	2f ef       	ldi	r18, 0xFF	; 255
     a46:	86 e7       	ldi	r24, 0x76	; 118
     a48:	91 e0       	ldi	r25, 0x01	; 1

00000a4a <.L1^B1>:
     a4a:	21 50       	subi	r18, 0x01	; 1
     a4c:	80 40       	sbci	r24, 0x00	; 0
     a4e:	90 40       	sbci	r25, 0x00	; 0
     a50:	e1 f7       	brne	.-8      	; 0xa4a <.L1^B1>
     a52:	00 c0       	rjmp	.+0      	; 0xa54 <L0^A>

00000a54 <L0^A>:
	...

00000a56 <.LBE8>:
        _delay_ms(30);
        released = 1;
     a56:	81 e0       	ldi	r24, 0x01	; 1
     a58:	90 e0       	ldi	r25, 0x00	; 0
     a5a:	90 93 01 02 	sts	0x0201, r25	; 0x800201 <released.0+0x1>
     a5e:	80 93 00 02 	sts	0x0200, r24	; 0x800200 <released.0>

00000a62 <.Loc.36>:
    }

    if (((PINF & (1 << PF1)) == 0) && released == 1)   // Schakel check s2 Ingedrukt
     a62:	79 9b       	sbis	0x0f, 1	; 15
     a64:	0a c0       	rjmp	.+20     	; 0xa7a <.L4>
     a66:	08 95       	ret

00000a68 <.L3>:
     a68:	79 99       	sbic	0x0f, 1	; 15
     a6a:	06 c0       	rjmp	.+12     	; 0xa78 <.L2>

00000a6c <.Loc.40>:
     a6c:	80 91 00 02 	lds	r24, 0x0200	; 0x800200 <released.0>
     a70:	90 91 01 02 	lds	r25, 0x0201	; 0x800201 <released.0+0x1>
     a74:	01 97       	sbiw	r24, 0x01	; 1
     a76:	09 f0       	breq	.+2      	; 0xa7a <.L4>

00000a78 <.L2>:
        PORTB &= ~(1 << PB7);
        PORTB &= ~(1 << PB6);       // Led Groen on
        _delay_ms(100);
        released = 0;
    }
}
     a78:	08 95       	ret

00000a7a <.L4>:
        PORTB &= ~(1 << PB7);
     a7a:	2f 98       	cbi	0x05, 7	; 5

00000a7c <.Loc.44>:
        PORTB &= ~(1 << PB6);       // Led Groen on
     a7c:	2e 98       	cbi	0x05, 6	; 5

00000a7e <.LBB10>:
     a7e:	2f ef       	ldi	r18, 0xFF	; 255
     a80:	81 ee       	ldi	r24, 0xE1	; 225
     a82:	94 e0       	ldi	r25, 0x04	; 4

00000a84 <.L1^B2>:
     a84:	21 50       	subi	r18, 0x01	; 1
     a86:	80 40       	sbci	r24, 0x00	; 0
     a88:	90 40       	sbci	r25, 0x00	; 0
     a8a:	e1 f7       	brne	.-8      	; 0xa84 <.L1^B2>
     a8c:	00 c0       	rjmp	.+0      	; 0xa8e <L0^A>

00000a8e <L0^A>:
	...

00000a90 <.LBE10>:
        released = 0;
     a90:	10 92 01 02 	sts	0x0201, r1	; 0x800201 <released.0+0x1>
     a94:	10 92 00 02 	sts	0x0200, r1	; 0x800200 <released.0>

00000a98 <.Loc.57>:
}
     a98:	ef cf       	rjmp	.-34     	; 0xa78 <.L2>

00000a9a <test_ontvang>:
    else{released = 1;}
}*/


void test_ontvang(void){ //agv
    if (((NEXT_MOD_PIN & (1 << NEXT_MOD)) != 0)){ //input vanuit module
     a9a:	91 99       	sbic	0x12, 1	; 18
     a9c:	02 c0       	rjmp	.+4      	; 0xaa2 <.L9>

00000a9e <.Loc.61>:
          PORTB &= ~(1 << PB7);
          _delay_ms(500);
          acknowledge_agv();
    }
    else{PORTB |= (1 << PB7);}
     a9e:	2f 9a       	sbi	0x05, 7	; 5

00000aa0 <.Loc.63>:
}
     aa0:	08 95       	ret

00000aa2 <.L9>:
          PORTB &= ~(1 << PB7);
     aa2:	2f 98       	cbi	0x05, 7	; 5

00000aa4 <.LBB12>:
     aa4:	2f ef       	ldi	r18, 0xFF	; 255
     aa6:	89 e6       	ldi	r24, 0x69	; 105
     aa8:	98 e1       	ldi	r25, 0x18	; 24

00000aaa <.L1^B3>:
     aaa:	21 50       	subi	r18, 0x01	; 1
     aac:	80 40       	sbci	r24, 0x00	; 0
     aae:	90 40       	sbci	r25, 0x00	; 0
     ab0:	e1 f7       	brne	.-8      	; 0xaaa <.L1^B3>
     ab2:	00 c0       	rjmp	.+0      	; 0xab4 <L0^A>

00000ab4 <L0^A>:
	...

00000ab6 <.LBE12>:
          acknowledge_agv();
     ab6:	0e 94 95 00 	call	0x12a	; 0x12a <acknowledge_agv>

00000aba <.LVL6>:
     aba:	08 95       	ret

00000abc <ultrasoonAfstand_R_VOOR>:
     abc:	cf 93       	push	r28
     abe:	df 93       	push	r29
     ac0:	00 d0       	rcall	.+0      	; 0xac2 <L0^A>

00000ac2 <L0^A>:
     ac2:	0f 92       	push	r0
     ac4:	cd b7       	in	r28, 0x3d	; 61
     ac6:	de b7       	in	r29, 0x3e	; 62

00000ac8 <.Loc.1>:
     ac8:	46 98       	cbi	0x08, 6	; 8

00000aca <.Loc.3>:
     aca:	46 9a       	sbi	0x08, 6	; 8

00000acc <.LBB10>:
     acc:	25 e3       	ldi	r18, 0x35	; 53

00000ace <.L1^B1>:
     ace:	2a 95       	dec	r18
     ad0:	f1 f7       	brne	.-4      	; 0xace <.L1^B1>
	...

00000ad4 <.LBE10>:
     ad4:	46 98       	cbi	0x08, 6	; 8

00000ad6 <.Loc.16>:
     ad6:	80 e1       	ldi	r24, 0x10	; 16
     ad8:	97 e2       	ldi	r25, 0x27	; 39
     ada:	a0 e0       	ldi	r26, 0x00	; 0
     adc:	b0 e0       	ldi	r27, 0x00	; 0

00000ade <.L3>:
     ade:	37 99       	sbic	0x06, 7	; 6
     ae0:	05 c0       	rjmp	.+10     	; 0xaec <.L2>

00000ae2 <.Loc.20>:
     ae2:	01 97       	sbiw	r24, 0x01	; 1
     ae4:	a1 09       	sbc	r26, r1
     ae6:	b1 09       	sbc	r27, r1
     ae8:	d0 f7       	brcc	.-12     	; 0xade <.L3>

00000aea <.Loc.21>:
     aea:	05 c0       	rjmp	.+10     	; 0xaf6 <.L4>

00000aec <.L2>:
     aec:	89 2b       	or	r24, r25
     aee:	8a 2b       	or	r24, r26
     af0:	8b 2b       	or	r24, r27
     af2:	09 f4       	brne	.+2      	; 0xaf6 <.L4>

00000af4 <L0^A>:
     af4:	42 c0       	rjmp	.+132    	; 0xb7a <.L8>

00000af6 <.L4>:
     af6:	10 92 85 00 	sts	0x0085, r1	; 0x800085 <__TEXT_REGION_LENGTH__+0x700085>
     afa:	10 92 84 00 	sts	0x0084, r1	; 0x800084 <__TEXT_REGION_LENGTH__+0x700084>

00000afe <.Loc.26>:
     afe:	82 e0       	ldi	r24, 0x02	; 2
     b00:	80 93 81 00 	sts	0x0081, r24	; 0x800081 <__TEXT_REGION_LENGTH__+0x700081>

00000b04 <.Loc.28>:
     b04:	e4 e8       	ldi	r30, 0x84	; 132
     b06:	f0 e0       	ldi	r31, 0x00	; 0

00000b08 <.L7>:
     b08:	37 9b       	sbis	0x06, 7	; 6
     b0a:	05 c0       	rjmp	.+10     	; 0xb16 <.L6>

00000b0c <.Loc.31>:
     b0c:	80 81       	ld	r24, Z
     b0e:	91 81       	ldd	r25, Z+1	; 0x01

00000b10 <.Loc.32>:
     b10:	80 34       	cpi	r24, 0x40	; 64
     b12:	9c 49       	sbci	r25, 0x9C	; 156
     b14:	c8 f3       	brcs	.-14     	; 0xb08 <.L7>

00000b16 <.L6>:
     b16:	10 92 81 00 	sts	0x0081, r1	; 0x800081 <__TEXT_REGION_LENGTH__+0x700081>

00000b1a <.Loc.35>:
     b1a:	80 91 84 00 	lds	r24, 0x0084	; 0x800084 <__TEXT_REGION_LENGTH__+0x700084>
     b1e:	90 91 85 00 	lds	r25, 0x0085	; 0x800085 <__TEXT_REGION_LENGTH__+0x700085>

00000b22 <.Loc.37>:
     b22:	9c 01       	movw	r18, r24
     b24:	40 e0       	ldi	r20, 0x00	; 0
     b26:	50 e0       	ldi	r21, 0x00	; 0
     b28:	29 83       	std	Y+1, r18	; 0x01
     b2a:	3a 83       	std	Y+2, r19	; 0x02
     b2c:	4b 83       	std	Y+3, r20	; 0x03
     b2e:	5c 83       	std	Y+4, r21	; 0x04
     b30:	ca 01       	movw	r24, r20
     b32:	b9 01       	movw	r22, r18
     b34:	0e 94 fb 07 	call	0xff6	; 0xff6 <__floatunsisf>

00000b38 <.LVL6>:
     b38:	28 e2       	ldi	r18, 0x28	; 40
     b3a:	3e e7       	ldi	r19, 0x7E	; 126
     b3c:	4c e0       	ldi	r20, 0x0C	; 12
     b3e:	5c e3       	ldi	r21, 0x3C	; 60
     b40:	69 83       	std	Y+1, r22	; 0x01
     b42:	7a 83       	std	Y+2, r23	; 0x02
     b44:	8b 83       	std	Y+3, r24	; 0x03
     b46:	9c 83       	std	Y+4, r25	; 0x04
     b48:	69 81       	ldd	r22, Y+1	; 0x01
     b4a:	7a 81       	ldd	r23, Y+2	; 0x02
     b4c:	8b 81       	ldd	r24, Y+3	; 0x03
     b4e:	9c 81       	ldd	r25, Y+4	; 0x04
     b50:	0e 94 89 08 	call	0x1112	; 0x1112 <__mulsf3>

00000b54 <.LVL7>:
     b54:	69 83       	std	Y+1, r22	; 0x01
     b56:	7a 83       	std	Y+2, r23	; 0x02
     b58:	8b 83       	std	Y+3, r24	; 0x03
     b5a:	9c 83       	std	Y+4, r25	; 0x04
     b5c:	69 81       	ldd	r22, Y+1	; 0x01
     b5e:	7a 81       	ldd	r23, Y+2	; 0x02
     b60:	8b 81       	ldd	r24, Y+3	; 0x03
     b62:	9c 81       	ldd	r25, Y+4	; 0x04
     b64:	0e 94 cc 07 	call	0xf98	; 0xf98 <__fixunssfsi>

00000b68 <.LVL8>:
     b68:	86 2f       	mov	r24, r22
     b6a:	97 2f       	mov	r25, r23

00000b6c <.L1>:
     b6c:	0f 90       	pop	r0
     b6e:	0f 90       	pop	r0
     b70:	0f 90       	pop	r0
     b72:	0f 90       	pop	r0
     b74:	df 91       	pop	r29
     b76:	cf 91       	pop	r28
     b78:	08 95       	ret

00000b7a <.L8>:
     b7a:	87 ee       	ldi	r24, 0xE7	; 231
     b7c:	93 e0       	ldi	r25, 0x03	; 3

00000b7e <.Loc.42>:
     b7e:	f6 cf       	rjmp	.-20     	; 0xb6c <.L1>

00000b80 <ultrasoonAfstand_L_VOOR>:
     b80:	cf 93       	push	r28
     b82:	df 93       	push	r29
     b84:	00 d0       	rcall	.+0      	; 0xb86 <L0^A>

00000b86 <L0^A>:
     b86:	0f 92       	push	r0
     b88:	cd b7       	in	r28, 0x3d	; 61
     b8a:	de b7       	in	r29, 0x3e	; 62

00000b8c <.Loc.44>:
     b8c:	17 98       	cbi	0x02, 7	; 2

00000b8e <.Loc.46>:
     b8e:	17 9a       	sbi	0x02, 7	; 2

00000b90 <.LBB12>:
     b90:	25 e3       	ldi	r18, 0x35	; 53

00000b92 <.L1^B2>:
     b92:	2a 95       	dec	r18
     b94:	f1 f7       	brne	.-4      	; 0xb92 <.L1^B2>
	...

00000b98 <.LBE12>:
     b98:	17 98       	cbi	0x02, 7	; 2

00000b9a <.Loc.59>:
     b9a:	80 e1       	ldi	r24, 0x10	; 16
     b9c:	97 e2       	ldi	r25, 0x27	; 39
     b9e:	a0 e0       	ldi	r26, 0x00	; 0
     ba0:	b0 e0       	ldi	r27, 0x00	; 0

00000ba2 <.L13>:
     ba2:	06 99       	sbic	0x00, 6	; 0
     ba4:	05 c0       	rjmp	.+10     	; 0xbb0 <.L12>

00000ba6 <.Loc.63>:
     ba6:	01 97       	sbiw	r24, 0x01	; 1
     ba8:	a1 09       	sbc	r26, r1
     baa:	b1 09       	sbc	r27, r1
     bac:	d0 f7       	brcc	.-12     	; 0xba2 <.L13>

00000bae <.Loc.64>:
     bae:	05 c0       	rjmp	.+10     	; 0xbba <.L14>

00000bb0 <.L12>:
     bb0:	89 2b       	or	r24, r25
     bb2:	8a 2b       	or	r24, r26
     bb4:	8b 2b       	or	r24, r27
     bb6:	09 f4       	brne	.+2      	; 0xbba <.L14>

00000bb8 <L0^A>:
     bb8:	42 c0       	rjmp	.+132    	; 0xc3e <.L18>

00000bba <.L14>:
     bba:	10 92 85 00 	sts	0x0085, r1	; 0x800085 <__TEXT_REGION_LENGTH__+0x700085>
     bbe:	10 92 84 00 	sts	0x0084, r1	; 0x800084 <__TEXT_REGION_LENGTH__+0x700084>

00000bc2 <.Loc.69>:
     bc2:	82 e0       	ldi	r24, 0x02	; 2
     bc4:	80 93 81 00 	sts	0x0081, r24	; 0x800081 <__TEXT_REGION_LENGTH__+0x700081>

00000bc8 <.Loc.71>:
     bc8:	e4 e8       	ldi	r30, 0x84	; 132
     bca:	f0 e0       	ldi	r31, 0x00	; 0

00000bcc <.L17>:
     bcc:	06 9b       	sbis	0x00, 6	; 0
     bce:	05 c0       	rjmp	.+10     	; 0xbda <.L16>

00000bd0 <.Loc.74>:
     bd0:	80 81       	ld	r24, Z
     bd2:	91 81       	ldd	r25, Z+1	; 0x01

00000bd4 <.Loc.75>:
     bd4:	80 34       	cpi	r24, 0x40	; 64
     bd6:	9c 49       	sbci	r25, 0x9C	; 156
     bd8:	c8 f3       	brcs	.-14     	; 0xbcc <.L17>

00000bda <.L16>:
     bda:	10 92 81 00 	sts	0x0081, r1	; 0x800081 <__TEXT_REGION_LENGTH__+0x700081>

00000bde <.Loc.78>:
     bde:	80 91 84 00 	lds	r24, 0x0084	; 0x800084 <__TEXT_REGION_LENGTH__+0x700084>
     be2:	90 91 85 00 	lds	r25, 0x0085	; 0x800085 <__TEXT_REGION_LENGTH__+0x700085>

00000be6 <.Loc.80>:
     be6:	9c 01       	movw	r18, r24
     be8:	40 e0       	ldi	r20, 0x00	; 0
     bea:	50 e0       	ldi	r21, 0x00	; 0
     bec:	29 83       	std	Y+1, r18	; 0x01
     bee:	3a 83       	std	Y+2, r19	; 0x02
     bf0:	4b 83       	std	Y+3, r20	; 0x03
     bf2:	5c 83       	std	Y+4, r21	; 0x04
     bf4:	ca 01       	movw	r24, r20
     bf6:	b9 01       	movw	r22, r18
     bf8:	0e 94 fb 07 	call	0xff6	; 0xff6 <__floatunsisf>

00000bfc <.LVL18>:
     bfc:	28 e2       	ldi	r18, 0x28	; 40
     bfe:	3e e7       	ldi	r19, 0x7E	; 126
     c00:	4c e0       	ldi	r20, 0x0C	; 12
     c02:	5c e3       	ldi	r21, 0x3C	; 60
     c04:	69 83       	std	Y+1, r22	; 0x01
     c06:	7a 83       	std	Y+2, r23	; 0x02
     c08:	8b 83       	std	Y+3, r24	; 0x03
     c0a:	9c 83       	std	Y+4, r25	; 0x04
     c0c:	69 81       	ldd	r22, Y+1	; 0x01
     c0e:	7a 81       	ldd	r23, Y+2	; 0x02
     c10:	8b 81       	ldd	r24, Y+3	; 0x03
     c12:	9c 81       	ldd	r25, Y+4	; 0x04
     c14:	0e 94 89 08 	call	0x1112	; 0x1112 <__mulsf3>

00000c18 <.LVL19>:
     c18:	69 83       	std	Y+1, r22	; 0x01
     c1a:	7a 83       	std	Y+2, r23	; 0x02
     c1c:	8b 83       	std	Y+3, r24	; 0x03
     c1e:	9c 83       	std	Y+4, r25	; 0x04
     c20:	69 81       	ldd	r22, Y+1	; 0x01
     c22:	7a 81       	ldd	r23, Y+2	; 0x02
     c24:	8b 81       	ldd	r24, Y+3	; 0x03
     c26:	9c 81       	ldd	r25, Y+4	; 0x04
     c28:	0e 94 cc 07 	call	0xf98	; 0xf98 <__fixunssfsi>

00000c2c <.LVL20>:
     c2c:	86 2f       	mov	r24, r22
     c2e:	97 2f       	mov	r25, r23

00000c30 <.L11>:
     c30:	0f 90       	pop	r0
     c32:	0f 90       	pop	r0
     c34:	0f 90       	pop	r0
     c36:	0f 90       	pop	r0
     c38:	df 91       	pop	r29
     c3a:	cf 91       	pop	r28
     c3c:	08 95       	ret

00000c3e <.L18>:
     c3e:	87 ee       	ldi	r24, 0xE7	; 231
     c40:	93 e0       	ldi	r25, 0x03	; 3

00000c42 <.Loc.85>:
     c42:	f6 cf       	rjmp	.-20     	; 0xc30 <.L11>

00000c44 <ultrasoonAfstand_R_ACHTER>:
     c44:	cf 93       	push	r28
     c46:	df 93       	push	r29
     c48:	00 d0       	rcall	.+0      	; 0xc4a <L0^A>

00000c4a <L0^A>:
     c4a:	0f 92       	push	r0
     c4c:	cd b7       	in	r28, 0x3d	; 61
     c4e:	de b7       	in	r29, 0x3e	; 62

00000c50 <.Loc.87>:
     c50:	42 98       	cbi	0x08, 2	; 8

00000c52 <.Loc.89>:
     c52:	42 9a       	sbi	0x08, 2	; 8

00000c54 <.LBB14>:
     c54:	25 e3       	ldi	r18, 0x35	; 53

00000c56 <.L1^B3>:
     c56:	2a 95       	dec	r18
     c58:	f1 f7       	brne	.-4      	; 0xc56 <.L1^B3>
	...

00000c5c <.LBE14>:
     c5c:	42 98       	cbi	0x08, 2	; 8

00000c5e <.Loc.102>:
     c5e:	80 e1       	ldi	r24, 0x10	; 16
     c60:	97 e2       	ldi	r25, 0x27	; 39
     c62:	a0 e0       	ldi	r26, 0x00	; 0
     c64:	b0 e0       	ldi	r27, 0x00	; 0

00000c66 <.L23>:
     c66:	33 99       	sbic	0x06, 3	; 6
     c68:	05 c0       	rjmp	.+10     	; 0xc74 <.L22>

00000c6a <.Loc.106>:
     c6a:	01 97       	sbiw	r24, 0x01	; 1
     c6c:	a1 09       	sbc	r26, r1
     c6e:	b1 09       	sbc	r27, r1
     c70:	d0 f7       	brcc	.-12     	; 0xc66 <.L23>

00000c72 <.Loc.107>:
     c72:	05 c0       	rjmp	.+10     	; 0xc7e <.L24>

00000c74 <.L22>:
     c74:	89 2b       	or	r24, r25
     c76:	8a 2b       	or	r24, r26
     c78:	8b 2b       	or	r24, r27
     c7a:	09 f4       	brne	.+2      	; 0xc7e <.L24>

00000c7c <L0^A>:
     c7c:	42 c0       	rjmp	.+132    	; 0xd02 <.L28>

00000c7e <.L24>:
     c7e:	10 92 85 00 	sts	0x0085, r1	; 0x800085 <__TEXT_REGION_LENGTH__+0x700085>
     c82:	10 92 84 00 	sts	0x0084, r1	; 0x800084 <__TEXT_REGION_LENGTH__+0x700084>

00000c86 <.Loc.112>:
     c86:	82 e0       	ldi	r24, 0x02	; 2
     c88:	80 93 81 00 	sts	0x0081, r24	; 0x800081 <__TEXT_REGION_LENGTH__+0x700081>

00000c8c <.Loc.114>:
     c8c:	e4 e8       	ldi	r30, 0x84	; 132
     c8e:	f0 e0       	ldi	r31, 0x00	; 0

00000c90 <.L27>:
     c90:	33 9b       	sbis	0x06, 3	; 6
     c92:	05 c0       	rjmp	.+10     	; 0xc9e <.L26>

00000c94 <.Loc.117>:
     c94:	80 81       	ld	r24, Z
     c96:	91 81       	ldd	r25, Z+1	; 0x01

00000c98 <.Loc.118>:
     c98:	80 34       	cpi	r24, 0x40	; 64
     c9a:	9c 49       	sbci	r25, 0x9C	; 156
     c9c:	c8 f3       	brcs	.-14     	; 0xc90 <.L27>

00000c9e <.L26>:
     c9e:	10 92 81 00 	sts	0x0081, r1	; 0x800081 <__TEXT_REGION_LENGTH__+0x700081>

00000ca2 <.Loc.121>:
     ca2:	80 91 84 00 	lds	r24, 0x0084	; 0x800084 <__TEXT_REGION_LENGTH__+0x700084>
     ca6:	90 91 85 00 	lds	r25, 0x0085	; 0x800085 <__TEXT_REGION_LENGTH__+0x700085>

00000caa <.Loc.123>:
     caa:	9c 01       	movw	r18, r24
     cac:	40 e0       	ldi	r20, 0x00	; 0
     cae:	50 e0       	ldi	r21, 0x00	; 0
     cb0:	29 83       	std	Y+1, r18	; 0x01
     cb2:	3a 83       	std	Y+2, r19	; 0x02
     cb4:	4b 83       	std	Y+3, r20	; 0x03
     cb6:	5c 83       	std	Y+4, r21	; 0x04
     cb8:	ca 01       	movw	r24, r20
     cba:	b9 01       	movw	r22, r18
     cbc:	0e 94 fb 07 	call	0xff6	; 0xff6 <__floatunsisf>

00000cc0 <.LVL30>:
     cc0:	28 e2       	ldi	r18, 0x28	; 40
     cc2:	3e e7       	ldi	r19, 0x7E	; 126
     cc4:	4c e0       	ldi	r20, 0x0C	; 12
     cc6:	5c e3       	ldi	r21, 0x3C	; 60
     cc8:	69 83       	std	Y+1, r22	; 0x01
     cca:	7a 83       	std	Y+2, r23	; 0x02
     ccc:	8b 83       	std	Y+3, r24	; 0x03
     cce:	9c 83       	std	Y+4, r25	; 0x04
     cd0:	69 81       	ldd	r22, Y+1	; 0x01
     cd2:	7a 81       	ldd	r23, Y+2	; 0x02
     cd4:	8b 81       	ldd	r24, Y+3	; 0x03
     cd6:	9c 81       	ldd	r25, Y+4	; 0x04
     cd8:	0e 94 89 08 	call	0x1112	; 0x1112 <__mulsf3>

00000cdc <.LVL31>:
     cdc:	69 83       	std	Y+1, r22	; 0x01
     cde:	7a 83       	std	Y+2, r23	; 0x02
     ce0:	8b 83       	std	Y+3, r24	; 0x03
     ce2:	9c 83       	std	Y+4, r25	; 0x04
     ce4:	69 81       	ldd	r22, Y+1	; 0x01
     ce6:	7a 81       	ldd	r23, Y+2	; 0x02
     ce8:	8b 81       	ldd	r24, Y+3	; 0x03
     cea:	9c 81       	ldd	r25, Y+4	; 0x04
     cec:	0e 94 cc 07 	call	0xf98	; 0xf98 <__fixunssfsi>

00000cf0 <.LVL32>:
     cf0:	86 2f       	mov	r24, r22
     cf2:	97 2f       	mov	r25, r23

00000cf4 <.L21>:
     cf4:	0f 90       	pop	r0
     cf6:	0f 90       	pop	r0
     cf8:	0f 90       	pop	r0
     cfa:	0f 90       	pop	r0
     cfc:	df 91       	pop	r29
     cfe:	cf 91       	pop	r28
     d00:	08 95       	ret

00000d02 <.L28>:
     d02:	87 ee       	ldi	r24, 0xE7	; 231
     d04:	93 e0       	ldi	r25, 0x03	; 3

00000d06 <.Loc.128>:
     d06:	f6 cf       	rjmp	.-20     	; 0xcf4 <.L21>

00000d08 <ultrasoonAfstand_L_ACHTER>:
     d08:	cf 93       	push	r28
     d0a:	df 93       	push	r29
     d0c:	00 d0       	rcall	.+0      	; 0xd0e <L0^A>

00000d0e <L0^A>:
     d0e:	0f 92       	push	r0
     d10:	cd b7       	in	r28, 0x3d	; 61
     d12:	de b7       	in	r29, 0x3e	; 62

00000d14 <.Loc.130>:
     d14:	44 98       	cbi	0x08, 4	; 8

00000d16 <.Loc.132>:
     d16:	44 9a       	sbi	0x08, 4	; 8

00000d18 <.LBB16>:
     d18:	25 e3       	ldi	r18, 0x35	; 53

00000d1a <.L1^B4>:
     d1a:	2a 95       	dec	r18
     d1c:	f1 f7       	brne	.-4      	; 0xd1a <.L1^B4>
	...

00000d20 <.LBE16>:
     d20:	44 98       	cbi	0x08, 4	; 8

00000d22 <.Loc.145>:
     d22:	80 e1       	ldi	r24, 0x10	; 16
     d24:	97 e2       	ldi	r25, 0x27	; 39
     d26:	a0 e0       	ldi	r26, 0x00	; 0
     d28:	b0 e0       	ldi	r27, 0x00	; 0

00000d2a <.L33>:
     d2a:	35 99       	sbic	0x06, 5	; 6
     d2c:	05 c0       	rjmp	.+10     	; 0xd38 <.L32>

00000d2e <.Loc.149>:
     d2e:	01 97       	sbiw	r24, 0x01	; 1
     d30:	a1 09       	sbc	r26, r1
     d32:	b1 09       	sbc	r27, r1
     d34:	d0 f7       	brcc	.-12     	; 0xd2a <.L33>

00000d36 <.Loc.150>:
     d36:	05 c0       	rjmp	.+10     	; 0xd42 <.L34>

00000d38 <.L32>:
     d38:	89 2b       	or	r24, r25
     d3a:	8a 2b       	or	r24, r26
     d3c:	8b 2b       	or	r24, r27
     d3e:	09 f4       	brne	.+2      	; 0xd42 <.L34>

00000d40 <L0^A>:
     d40:	42 c0       	rjmp	.+132    	; 0xdc6 <.L38>

00000d42 <.L34>:
     d42:	10 92 85 00 	sts	0x0085, r1	; 0x800085 <__TEXT_REGION_LENGTH__+0x700085>
     d46:	10 92 84 00 	sts	0x0084, r1	; 0x800084 <__TEXT_REGION_LENGTH__+0x700084>

00000d4a <.Loc.155>:
     d4a:	82 e0       	ldi	r24, 0x02	; 2
     d4c:	80 93 81 00 	sts	0x0081, r24	; 0x800081 <__TEXT_REGION_LENGTH__+0x700081>

00000d50 <.Loc.157>:
     d50:	e4 e8       	ldi	r30, 0x84	; 132
     d52:	f0 e0       	ldi	r31, 0x00	; 0

00000d54 <.L37>:
     d54:	35 9b       	sbis	0x06, 5	; 6
     d56:	05 c0       	rjmp	.+10     	; 0xd62 <.L36>

00000d58 <.Loc.160>:
     d58:	80 81       	ld	r24, Z
     d5a:	91 81       	ldd	r25, Z+1	; 0x01

00000d5c <.Loc.161>:
     d5c:	80 34       	cpi	r24, 0x40	; 64
     d5e:	9c 49       	sbci	r25, 0x9C	; 156
     d60:	c8 f3       	brcs	.-14     	; 0xd54 <.L37>

00000d62 <.L36>:
     d62:	10 92 81 00 	sts	0x0081, r1	; 0x800081 <__TEXT_REGION_LENGTH__+0x700081>

00000d66 <.Loc.164>:
     d66:	80 91 84 00 	lds	r24, 0x0084	; 0x800084 <__TEXT_REGION_LENGTH__+0x700084>
     d6a:	90 91 85 00 	lds	r25, 0x0085	; 0x800085 <__TEXT_REGION_LENGTH__+0x700085>

00000d6e <.Loc.166>:
     d6e:	9c 01       	movw	r18, r24
     d70:	40 e0       	ldi	r20, 0x00	; 0
     d72:	50 e0       	ldi	r21, 0x00	; 0
     d74:	29 83       	std	Y+1, r18	; 0x01
     d76:	3a 83       	std	Y+2, r19	; 0x02
     d78:	4b 83       	std	Y+3, r20	; 0x03
     d7a:	5c 83       	std	Y+4, r21	; 0x04
     d7c:	ca 01       	movw	r24, r20
     d7e:	b9 01       	movw	r22, r18
     d80:	0e 94 fb 07 	call	0xff6	; 0xff6 <__floatunsisf>

00000d84 <.LVL42>:
     d84:	28 e2       	ldi	r18, 0x28	; 40
     d86:	3e e7       	ldi	r19, 0x7E	; 126
     d88:	4c e0       	ldi	r20, 0x0C	; 12
     d8a:	5c e3       	ldi	r21, 0x3C	; 60
     d8c:	69 83       	std	Y+1, r22	; 0x01
     d8e:	7a 83       	std	Y+2, r23	; 0x02
     d90:	8b 83       	std	Y+3, r24	; 0x03
     d92:	9c 83       	std	Y+4, r25	; 0x04
     d94:	69 81       	ldd	r22, Y+1	; 0x01
     d96:	7a 81       	ldd	r23, Y+2	; 0x02
     d98:	8b 81       	ldd	r24, Y+3	; 0x03
     d9a:	9c 81       	ldd	r25, Y+4	; 0x04
     d9c:	0e 94 89 08 	call	0x1112	; 0x1112 <__mulsf3>

00000da0 <.LVL43>:
     da0:	69 83       	std	Y+1, r22	; 0x01
     da2:	7a 83       	std	Y+2, r23	; 0x02
     da4:	8b 83       	std	Y+3, r24	; 0x03
     da6:	9c 83       	std	Y+4, r25	; 0x04
     da8:	69 81       	ldd	r22, Y+1	; 0x01
     daa:	7a 81       	ldd	r23, Y+2	; 0x02
     dac:	8b 81       	ldd	r24, Y+3	; 0x03
     dae:	9c 81       	ldd	r25, Y+4	; 0x04
     db0:	0e 94 cc 07 	call	0xf98	; 0xf98 <__fixunssfsi>

00000db4 <.LVL44>:
     db4:	86 2f       	mov	r24, r22
     db6:	97 2f       	mov	r25, r23

00000db8 <.L31>:
     db8:	0f 90       	pop	r0
     dba:	0f 90       	pop	r0
     dbc:	0f 90       	pop	r0
     dbe:	0f 90       	pop	r0
     dc0:	df 91       	pop	r29
     dc2:	cf 91       	pop	r28
     dc4:	08 95       	ret

00000dc6 <.L38>:
     dc6:	87 ee       	ldi	r24, 0xE7	; 231
     dc8:	93 e0       	ldi	r25, 0x03	; 3

00000dca <.Loc.171>:
     dca:	f6 cf       	rjmp	.-20     	; 0xdb8 <.L31>

00000dcc <__subsf3>:
     dcc:	50 58       	subi	r21, 0x80	; 128

00000dce <__addsf3>:
     dce:	bb 27       	eor	r27, r27
     dd0:	aa 27       	eor	r26, r26
     dd2:	0e 94 fe 06 	call	0xdfc	; 0xdfc <__addsf3x>
     dd6:	0c 94 4f 08 	jmp	0x109e	; 0x109e <__fp_round>

00000dda <.L^B1>:
     dda:	0e 94 41 08 	call	0x1082	; 0x1082 <__fp_pscA>
     dde:	38 f0       	brcs	.+14     	; 0xdee <.L_nan>
     de0:	0e 94 48 08 	call	0x1090	; 0x1090 <__fp_pscB>
     de4:	20 f0       	brcs	.+8      	; 0xdee <.L_nan>
     de6:	39 f4       	brne	.+14     	; 0xdf6 <.L_inf>
     de8:	9f 3f       	cpi	r25, 0xFF	; 255
     dea:	19 f4       	brne	.+6      	; 0xdf2 <.L_infB>
     dec:	26 f4       	brtc	.+8      	; 0xdf6 <.L_inf>

00000dee <.L_nan>:
     dee:	0c 94 3e 08 	jmp	0x107c	; 0x107c <__fp_nan>

00000df2 <.L_infB>:
     df2:	0e f4       	brtc	.+2      	; 0xdf6 <.L_inf>
     df4:	e0 95       	com	r30

00000df6 <.L_inf>:
     df6:	e7 fb       	bst	r30, 7
     df8:	0c 94 38 08 	jmp	0x1070	; 0x1070 <__fp_inf>

00000dfc <__addsf3x>:
     dfc:	e9 2f       	mov	r30, r25
     dfe:	0e 94 60 08 	call	0x10c0	; 0x10c0 <__fp_split3>
     e02:	58 f3       	brcs	.-42     	; 0xdda <.L^B1>
     e04:	ba 17       	cp	r27, r26
     e06:	62 07       	cpc	r22, r18
     e08:	73 07       	cpc	r23, r19
     e0a:	84 07       	cpc	r24, r20
     e0c:	95 07       	cpc	r25, r21
     e0e:	20 f0       	brcs	.+8      	; 0xe18 <.L2^B1>
     e10:	79 f4       	brne	.+30     	; 0xe30 <.L4^B1>
     e12:	a6 f5       	brtc	.+104    	; 0xe7c <.L_add>
     e14:	0c 94 82 08 	jmp	0x1104	; 0x1104 <__fp_zero>

00000e18 <.L2^B1>:
     e18:	0e f4       	brtc	.+2      	; 0xe1c <.L3^B1>
     e1a:	e0 95       	com	r30

00000e1c <.L3^B1>:
     e1c:	0b 2e       	mov	r0, r27
     e1e:	ba 2f       	mov	r27, r26
     e20:	a0 2d       	mov	r26, r0
     e22:	0b 01       	movw	r0, r22
     e24:	b9 01       	movw	r22, r18
     e26:	90 01       	movw	r18, r0
     e28:	0c 01       	movw	r0, r24
     e2a:	ca 01       	movw	r24, r20
     e2c:	a0 01       	movw	r20, r0
     e2e:	11 24       	eor	r1, r1

00000e30 <.L4^B1>:
     e30:	ff 27       	eor	r31, r31
     e32:	59 1b       	sub	r21, r25

00000e34 <.L5^B1>:
     e34:	99 f0       	breq	.+38     	; 0xe5c <.L7^B1>
     e36:	59 3f       	cpi	r21, 0xF9	; 249
     e38:	50 f4       	brcc	.+20     	; 0xe4e <.L6^B1>
     e3a:	50 3e       	cpi	r21, 0xE0	; 224
     e3c:	68 f1       	brcs	.+90     	; 0xe98 <.L_ret>
     e3e:	1a 16       	cp	r1, r26
     e40:	f0 40       	sbci	r31, 0x00	; 0
     e42:	a2 2f       	mov	r26, r18
     e44:	23 2f       	mov	r18, r19
     e46:	34 2f       	mov	r19, r20
     e48:	44 27       	eor	r20, r20
     e4a:	58 5f       	subi	r21, 0xF8	; 248
     e4c:	f3 cf       	rjmp	.-26     	; 0xe34 <.L5^B1>

00000e4e <.L6^B1>:
     e4e:	46 95       	lsr	r20
     e50:	37 95       	ror	r19
     e52:	27 95       	ror	r18
     e54:	a7 95       	ror	r26
     e56:	f0 40       	sbci	r31, 0x00	; 0
     e58:	53 95       	inc	r21
     e5a:	c9 f7       	brne	.-14     	; 0xe4e <.L6^B1>

00000e5c <.L7^B1>:
     e5c:	7e f4       	brtc	.+30     	; 0xe7c <.L_add>
     e5e:	1f 16       	cp	r1, r31
     e60:	ba 0b       	sbc	r27, r26
     e62:	62 0b       	sbc	r22, r18
     e64:	73 0b       	sbc	r23, r19
     e66:	84 0b       	sbc	r24, r20
     e68:	ba f0       	brmi	.+46     	; 0xe98 <.L_ret>

00000e6a <.L8^B1>:
     e6a:	91 50       	subi	r25, 0x01	; 1
     e6c:	a1 f0       	breq	.+40     	; 0xe96 <.L9^B1>
     e6e:	ff 0f       	add	r31, r31
     e70:	bb 1f       	adc	r27, r27
     e72:	66 1f       	adc	r22, r22
     e74:	77 1f       	adc	r23, r23
     e76:	88 1f       	adc	r24, r24
     e78:	c2 f7       	brpl	.-16     	; 0xe6a <.L8^B1>
     e7a:	0e c0       	rjmp	.+28     	; 0xe98 <.L_ret>

00000e7c <.L_add>:
     e7c:	ba 0f       	add	r27, r26
     e7e:	62 1f       	adc	r22, r18
     e80:	73 1f       	adc	r23, r19
     e82:	84 1f       	adc	r24, r20
     e84:	48 f4       	brcc	.+18     	; 0xe98 <.L_ret>
     e86:	87 95       	ror	r24
     e88:	77 95       	ror	r23
     e8a:	67 95       	ror	r22
     e8c:	b7 95       	ror	r27
     e8e:	f7 95       	ror	r31
     e90:	9e 3f       	cpi	r25, 0xFE	; 254
     e92:	08 f0       	brcs	.+2      	; 0xe96 <.L9^B1>
     e94:	b0 cf       	rjmp	.-160    	; 0xdf6 <.L_inf>

00000e96 <.L9^B1>:
     e96:	93 95       	inc	r25

00000e98 <.L_ret>:
     e98:	88 0f       	add	r24, r24
     e9a:	08 f0       	brcs	.+2      	; 0xe9e <.L1^B1>
     e9c:	99 27       	eor	r25, r25

00000e9e <.L1^B1>:
     e9e:	ee 0f       	add	r30, r30
     ea0:	97 95       	ror	r25
     ea2:	87 95       	ror	r24
     ea4:	08 95       	ret

00000ea6 <__divsf3>:
     ea6:	0e 94 67 07 	call	0xece	; 0xece <__divsf3x>
     eaa:	0c 94 4f 08 	jmp	0x109e	; 0x109e <__fp_round>

00000eae <.L^B1>:
     eae:	0e 94 48 08 	call	0x1090	; 0x1090 <__fp_pscB>
     eb2:	58 f0       	brcs	.+22     	; 0xeca <.L_nan>
     eb4:	0e 94 41 08 	call	0x1082	; 0x1082 <__fp_pscA>
     eb8:	40 f0       	brcs	.+16     	; 0xeca <.L_nan>
     eba:	29 f4       	brne	.+10     	; 0xec6 <.L_zr>
     ebc:	5f 3f       	cpi	r21, 0xFF	; 255
     ebe:	29 f0       	breq	.+10     	; 0xeca <.L_nan>

00000ec0 <.L_inf>:
     ec0:	0c 94 38 08 	jmp	0x1070	; 0x1070 <__fp_inf>

00000ec4 <.L1^B1>:
     ec4:	51 11       	cpse	r21, r1

00000ec6 <.L_zr>:
     ec6:	0c 94 83 08 	jmp	0x1106	; 0x1106 <__fp_szero>

00000eca <.L_nan>:
     eca:	0c 94 3e 08 	jmp	0x107c	; 0x107c <__fp_nan>

00000ece <__divsf3x>:
     ece:	0e 94 60 08 	call	0x10c0	; 0x10c0 <__fp_split3>
     ed2:	68 f3       	brcs	.-38     	; 0xeae <.L^B1>

00000ed4 <__divsf3_pse>:
     ed4:	99 23       	and	r25, r25
     ed6:	b1 f3       	breq	.-20     	; 0xec4 <.L1^B1>
     ed8:	55 23       	and	r21, r21
     eda:	91 f3       	breq	.-28     	; 0xec0 <.L_inf>
     edc:	95 1b       	sub	r25, r21
     ede:	55 0b       	sbc	r21, r21
     ee0:	bb 27       	eor	r27, r27
     ee2:	aa 27       	eor	r26, r26

00000ee4 <.L2^B1>:
     ee4:	62 17       	cp	r22, r18
     ee6:	73 07       	cpc	r23, r19
     ee8:	84 07       	cpc	r24, r20
     eea:	38 f0       	brcs	.+14     	; 0xefa <.L3^B1>
     eec:	9f 5f       	subi	r25, 0xFF	; 255
     eee:	5f 4f       	sbci	r21, 0xFF	; 255
     ef0:	22 0f       	add	r18, r18
     ef2:	33 1f       	adc	r19, r19
     ef4:	44 1f       	adc	r20, r20
     ef6:	aa 1f       	adc	r26, r26
     ef8:	a9 f3       	breq	.-22     	; 0xee4 <.L2^B1>

00000efa <.L3^B1>:
     efa:	35 d0       	rcall	.+106    	; 0xf66 <.L_div>
     efc:	0e 2e       	mov	r0, r30
     efe:	3a f0       	brmi	.+14     	; 0xf0e <.L5^B1>

00000f00 <.L4^B1>:
     f00:	e0 e8       	ldi	r30, 0x80	; 128
     f02:	32 d0       	rcall	.+100    	; 0xf68 <.L_div1>
     f04:	91 50       	subi	r25, 0x01	; 1
     f06:	50 40       	sbci	r21, 0x00	; 0
     f08:	e6 95       	lsr	r30
     f0a:	00 1c       	adc	r0, r0
     f0c:	ca f7       	brpl	.-14     	; 0xf00 <.L4^B1>

00000f0e <.L5^B1>:
     f0e:	2b d0       	rcall	.+86     	; 0xf66 <.L_div>
     f10:	fe 2f       	mov	r31, r30
     f12:	29 d0       	rcall	.+82     	; 0xf66 <.L_div>
     f14:	66 0f       	add	r22, r22
     f16:	77 1f       	adc	r23, r23
     f18:	88 1f       	adc	r24, r24
     f1a:	bb 1f       	adc	r27, r27
     f1c:	26 17       	cp	r18, r22
     f1e:	37 07       	cpc	r19, r23
     f20:	48 07       	cpc	r20, r24
     f22:	ab 07       	cpc	r26, r27
     f24:	b0 e8       	ldi	r27, 0x80	; 128
     f26:	09 f0       	breq	.+2      	; 0xf2a <.L4^B2>
     f28:	bb 0b       	sbc	r27, r27

00000f2a <.L4^B2>:
     f2a:	80 2d       	mov	r24, r0
     f2c:	bf 01       	movw	r22, r30
     f2e:	ff 27       	eor	r31, r31
     f30:	93 58       	subi	r25, 0x83	; 131
     f32:	5f 4f       	sbci	r21, 0xFF	; 255
     f34:	3a f0       	brmi	.+14     	; 0xf44 <.L13^B1>
     f36:	9e 3f       	cpi	r25, 0xFE	; 254
     f38:	51 05       	cpc	r21, r1
     f3a:	78 f0       	brcs	.+30     	; 0xf5a <.L15^B1>
     f3c:	0c 94 38 08 	jmp	0x1070	; 0x1070 <__fp_inf>

00000f40 <.L12^B1>:
     f40:	0c 94 83 08 	jmp	0x1106	; 0x1106 <__fp_szero>

00000f44 <.L13^B1>:
     f44:	5f 3f       	cpi	r21, 0xFF	; 255
     f46:	e4 f3       	brlt	.-8      	; 0xf40 <.L12^B1>
     f48:	98 3e       	cpi	r25, 0xE8	; 232
     f4a:	d4 f3       	brlt	.-12     	; 0xf40 <.L12^B1>

00000f4c <.L14^B1>:
     f4c:	86 95       	lsr	r24
     f4e:	77 95       	ror	r23
     f50:	67 95       	ror	r22
     f52:	b7 95       	ror	r27
     f54:	f7 95       	ror	r31
     f56:	9f 5f       	subi	r25, 0xFF	; 255
     f58:	c9 f7       	brne	.-14     	; 0xf4c <.L14^B1>

00000f5a <.L15^B1>:
     f5a:	88 0f       	add	r24, r24
     f5c:	91 1d       	adc	r25, r1
     f5e:	96 95       	lsr	r25
     f60:	87 95       	ror	r24
     f62:	97 f9       	bld	r25, 7
     f64:	08 95       	ret

00000f66 <.L_div>:
     f66:	e1 e0       	ldi	r30, 0x01	; 1

00000f68 <.L_div1>:
     f68:	66 0f       	add	r22, r22
     f6a:	77 1f       	adc	r23, r23
     f6c:	88 1f       	adc	r24, r24
     f6e:	bb 1f       	adc	r27, r27
     f70:	62 17       	cp	r22, r18
     f72:	73 07       	cpc	r23, r19
     f74:	84 07       	cpc	r24, r20
     f76:	ba 07       	cpc	r27, r26
     f78:	20 f0       	brcs	.+8      	; 0xf82 <.L2^B2>
     f7a:	62 1b       	sub	r22, r18
     f7c:	73 0b       	sbc	r23, r19
     f7e:	84 0b       	sbc	r24, r20
     f80:	ba 0b       	sbc	r27, r26

00000f82 <.L2^B2>:
     f82:	ee 1f       	adc	r30, r30
     f84:	88 f7       	brcc	.-30     	; 0xf68 <.L_div1>
     f86:	e0 95       	com	r30
     f88:	08 95       	ret

00000f8a <__fixsfsi>:
     f8a:	0e 94 cc 07 	call	0xf98	; 0xf98 <__fixunssfsi>
     f8e:	68 94       	set
     f90:	b1 11       	cpse	r27, r1
     f92:	0c 94 83 08 	jmp	0x1106	; 0x1106 <__fp_szero>
     f96:	08 95       	ret

00000f98 <__fixunssfsi>:
     f98:	0e 94 68 08 	call	0x10d0	; 0x10d0 <__fp_splitA>
     f9c:	88 f0       	brcs	.+34     	; 0xfc0 <.L_err>
     f9e:	9f 57       	subi	r25, 0x7F	; 127
     fa0:	98 f0       	brcs	.+38     	; 0xfc8 <.L_zr>
     fa2:	b9 2f       	mov	r27, r25
     fa4:	99 27       	eor	r25, r25
     fa6:	b7 51       	subi	r27, 0x17	; 23
     fa8:	b0 f0       	brcs	.+44     	; 0xfd6 <.L4^B1>
     faa:	e1 f0       	breq	.+56     	; 0xfe4 <.L_sign>

00000fac <.L1^B1>:
     fac:	66 0f       	add	r22, r22
     fae:	77 1f       	adc	r23, r23
     fb0:	88 1f       	adc	r24, r24
     fb2:	99 1f       	adc	r25, r25
     fb4:	1a f0       	brmi	.+6      	; 0xfbc <.L2^B1>
     fb6:	ba 95       	dec	r27
     fb8:	c9 f7       	brne	.-14     	; 0xfac <.L1^B1>
     fba:	14 c0       	rjmp	.+40     	; 0xfe4 <.L_sign>

00000fbc <.L2^B1>:
     fbc:	b1 30       	cpi	r27, 0x01	; 1
     fbe:	91 f0       	breq	.+36     	; 0xfe4 <.L_sign>

00000fc0 <.L_err>:
     fc0:	0e 94 82 08 	call	0x1104	; 0x1104 <__fp_zero>
     fc4:	b1 e0       	ldi	r27, 0x01	; 1
     fc6:	08 95       	ret

00000fc8 <.L_zr>:
     fc8:	0c 94 82 08 	jmp	0x1104	; 0x1104 <__fp_zero>

00000fcc <.L3^B1>:
     fcc:	67 2f       	mov	r22, r23
     fce:	78 2f       	mov	r23, r24
     fd0:	88 27       	eor	r24, r24
     fd2:	b8 5f       	subi	r27, 0xF8	; 248
     fd4:	39 f0       	breq	.+14     	; 0xfe4 <.L_sign>

00000fd6 <.L4^B1>:
     fd6:	b9 3f       	cpi	r27, 0xF9	; 249
     fd8:	cc f3       	brlt	.-14     	; 0xfcc <.L3^B1>

00000fda <.L5^B1>:
     fda:	86 95       	lsr	r24
     fdc:	77 95       	ror	r23
     fde:	67 95       	ror	r22
     fe0:	b3 95       	inc	r27
     fe2:	d9 f7       	brne	.-10     	; 0xfda <.L5^B1>

00000fe4 <.L_sign>:
     fe4:	3e f4       	brtc	.+14     	; 0xff4 <.L6^B1>
     fe6:	90 95       	com	r25
     fe8:	80 95       	com	r24
     fea:	70 95       	com	r23
     fec:	61 95       	neg	r22
     fee:	7f 4f       	sbci	r23, 0xFF	; 255
     ff0:	8f 4f       	sbci	r24, 0xFF	; 255
     ff2:	9f 4f       	sbci	r25, 0xFF	; 255

00000ff4 <.L6^B1>:
     ff4:	08 95       	ret

00000ff6 <__floatunsisf>:
     ff6:	e8 94       	clt
     ff8:	09 c0       	rjmp	.+18     	; 0x100c <.L1^B1>

00000ffa <__floatsisf>:
     ffa:	97 fb       	bst	r25, 7
     ffc:	3e f4       	brtc	.+14     	; 0x100c <.L1^B1>
     ffe:	90 95       	com	r25
    1000:	80 95       	com	r24
    1002:	70 95       	com	r23
    1004:	61 95       	neg	r22
    1006:	7f 4f       	sbci	r23, 0xFF	; 255
    1008:	8f 4f       	sbci	r24, 0xFF	; 255
    100a:	9f 4f       	sbci	r25, 0xFF	; 255

0000100c <.L1^B1>:
    100c:	99 23       	and	r25, r25
    100e:	a9 f0       	breq	.+42     	; 0x103a <.L4^B1>
    1010:	f9 2f       	mov	r31, r25
    1012:	96 e9       	ldi	r25, 0x96	; 150
    1014:	bb 27       	eor	r27, r27

00001016 <.L2^B1>:
    1016:	93 95       	inc	r25
    1018:	f6 95       	lsr	r31
    101a:	87 95       	ror	r24
    101c:	77 95       	ror	r23
    101e:	67 95       	ror	r22
    1020:	b7 95       	ror	r27
    1022:	f1 11       	cpse	r31, r1
    1024:	f8 cf       	rjmp	.-16     	; 0x1016 <.L2^B1>
    1026:	fa f4       	brpl	.+62     	; 0x1066 <.L_pack>
    1028:	bb 0f       	add	r27, r27
    102a:	11 f4       	brne	.+4      	; 0x1030 <.L3^B1>
    102c:	60 ff       	sbrs	r22, 0
    102e:	1b c0       	rjmp	.+54     	; 0x1066 <.L_pack>

00001030 <.L3^B1>:
    1030:	6f 5f       	subi	r22, 0xFF	; 255
    1032:	7f 4f       	sbci	r23, 0xFF	; 255
    1034:	8f 4f       	sbci	r24, 0xFF	; 255
    1036:	9f 4f       	sbci	r25, 0xFF	; 255
    1038:	16 c0       	rjmp	.+44     	; 0x1066 <.L_pack>

0000103a <.L4^B1>:
    103a:	88 23       	and	r24, r24
    103c:	11 f0       	breq	.+4      	; 0x1042 <.L5^B1>
    103e:	96 e9       	ldi	r25, 0x96	; 150
    1040:	11 c0       	rjmp	.+34     	; 0x1064 <.L8^B1>

00001042 <.L5^B1>:
    1042:	77 23       	and	r23, r23
    1044:	21 f0       	breq	.+8      	; 0x104e <.L6^B1>
    1046:	9e e8       	ldi	r25, 0x8E	; 142
    1048:	87 2f       	mov	r24, r23
    104a:	76 2f       	mov	r23, r22
    104c:	05 c0       	rjmp	.+10     	; 0x1058 <.L7^B1>

0000104e <.L6^B1>:
    104e:	66 23       	and	r22, r22
    1050:	71 f0       	breq	.+28     	; 0x106e <.L9^B1>
    1052:	96 e8       	ldi	r25, 0x86	; 134
    1054:	86 2f       	mov	r24, r22
    1056:	70 e0       	ldi	r23, 0x00	; 0

00001058 <.L7^B1>:
    1058:	60 e0       	ldi	r22, 0x00	; 0
    105a:	2a f0       	brmi	.+10     	; 0x1066 <.L_pack>

0000105c <.L10^B1>:
    105c:	9a 95       	dec	r25
    105e:	66 0f       	add	r22, r22
    1060:	77 1f       	adc	r23, r23
    1062:	88 1f       	adc	r24, r24

00001064 <.L8^B1>:
    1064:	da f7       	brpl	.-10     	; 0x105c <.L10^B1>

00001066 <.L_pack>:
    1066:	88 0f       	add	r24, r24
    1068:	96 95       	lsr	r25
    106a:	87 95       	ror	r24
    106c:	97 f9       	bld	r25, 7

0000106e <.L9^B1>:
    106e:	08 95       	ret

00001070 <__fp_inf>:
    1070:	97 f9       	bld	r25, 7
    1072:	9f 67       	ori	r25, 0x7F	; 127
    1074:	80 e8       	ldi	r24, 0x80	; 128
    1076:	70 e0       	ldi	r23, 0x00	; 0
    1078:	60 e0       	ldi	r22, 0x00	; 0
    107a:	08 95       	ret

0000107c <__fp_nan>:
    107c:	9f ef       	ldi	r25, 0xFF	; 255
    107e:	80 ec       	ldi	r24, 0xC0	; 192
    1080:	08 95       	ret

00001082 <__fp_pscA>:
    1082:	00 24       	eor	r0, r0
    1084:	0a 94       	dec	r0
    1086:	16 16       	cp	r1, r22
    1088:	17 06       	cpc	r1, r23
    108a:	18 06       	cpc	r1, r24
    108c:	09 06       	cpc	r0, r25
    108e:	08 95       	ret

00001090 <__fp_pscB>:
    1090:	00 24       	eor	r0, r0
    1092:	0a 94       	dec	r0
    1094:	12 16       	cp	r1, r18
    1096:	13 06       	cpc	r1, r19
    1098:	14 06       	cpc	r1, r20
    109a:	05 06       	cpc	r0, r21
    109c:	08 95       	ret

0000109e <__fp_round>:
    109e:	09 2e       	mov	r0, r25
    10a0:	03 94       	inc	r0
    10a2:	00 0c       	add	r0, r0
    10a4:	11 f4       	brne	.+4      	; 0x10aa <.L1^B1>
    10a6:	88 23       	and	r24, r24
    10a8:	52 f0       	brmi	.+20     	; 0x10be <.L3^B1>

000010aa <.L1^B1>:
    10aa:	bb 0f       	add	r27, r27
    10ac:	40 f4       	brcc	.+16     	; 0x10be <.L3^B1>
    10ae:	bf 2b       	or	r27, r31
    10b0:	11 f4       	brne	.+4      	; 0x10b6 <.L2^B1>
    10b2:	60 ff       	sbrs	r22, 0
    10b4:	04 c0       	rjmp	.+8      	; 0x10be <.L3^B1>

000010b6 <.L2^B1>:
    10b6:	6f 5f       	subi	r22, 0xFF	; 255
    10b8:	7f 4f       	sbci	r23, 0xFF	; 255
    10ba:	8f 4f       	sbci	r24, 0xFF	; 255
    10bc:	9f 4f       	sbci	r25, 0xFF	; 255

000010be <.L3^B1>:
    10be:	08 95       	ret

000010c0 <__fp_split3>:
    10c0:	57 fd       	sbrc	r21, 7
    10c2:	90 58       	subi	r25, 0x80	; 128
    10c4:	44 0f       	add	r20, r20
    10c6:	55 1f       	adc	r21, r21
    10c8:	59 f0       	breq	.+22     	; 0x10e0 <.L4^B1>
    10ca:	5f 3f       	cpi	r21, 0xFF	; 255
    10cc:	71 f0       	breq	.+28     	; 0x10ea <.L5^B1>

000010ce <.L1^B1>:
    10ce:	47 95       	ror	r20

000010d0 <__fp_splitA>:
    10d0:	88 0f       	add	r24, r24
    10d2:	97 fb       	bst	r25, 7
    10d4:	99 1f       	adc	r25, r25
    10d6:	61 f0       	breq	.+24     	; 0x10f0 <.L6^B1>
    10d8:	9f 3f       	cpi	r25, 0xFF	; 255
    10da:	79 f0       	breq	.+30     	; 0x10fa <.L7^B1>

000010dc <.L3^B1>:
    10dc:	87 95       	ror	r24
    10de:	08 95       	ret

000010e0 <.L4^B1>:
    10e0:	12 16       	cp	r1, r18
    10e2:	13 06       	cpc	r1, r19
    10e4:	14 06       	cpc	r1, r20
    10e6:	55 1f       	adc	r21, r21
    10e8:	f2 cf       	rjmp	.-28     	; 0x10ce <.L1^B1>

000010ea <.L5^B1>:
    10ea:	46 95       	lsr	r20
    10ec:	f1 df       	rcall	.-30     	; 0x10d0 <__fp_splitA>
    10ee:	08 c0       	rjmp	.+16     	; 0x1100 <.L8^B1>

000010f0 <.L6^B1>:
    10f0:	16 16       	cp	r1, r22
    10f2:	17 06       	cpc	r1, r23
    10f4:	18 06       	cpc	r1, r24
    10f6:	99 1f       	adc	r25, r25
    10f8:	f1 cf       	rjmp	.-30     	; 0x10dc <.L3^B1>

000010fa <.L7^B1>:
    10fa:	86 95       	lsr	r24
    10fc:	71 05       	cpc	r23, r1
    10fe:	61 05       	cpc	r22, r1

00001100 <.L8^B1>:
    1100:	08 94       	sec
    1102:	08 95       	ret

00001104 <__fp_zero>:
    1104:	e8 94       	clt

00001106 <__fp_szero>:
    1106:	bb 27       	eor	r27, r27
    1108:	66 27       	eor	r22, r22
    110a:	77 27       	eor	r23, r23
    110c:	cb 01       	movw	r24, r22
    110e:	97 f9       	bld	r25, 7
    1110:	08 95       	ret

00001112 <__mulsf3>:
    1112:	0e 94 9c 08 	call	0x1138	; 0x1138 <__mulsf3x>
    1116:	0c 94 4f 08 	jmp	0x109e	; 0x109e <__fp_round>

0000111a <.L^B1>:
    111a:	0e 94 41 08 	call	0x1082	; 0x1082 <__fp_pscA>
    111e:	38 f0       	brcs	.+14     	; 0x112e <.L1^B1>
    1120:	0e 94 48 08 	call	0x1090	; 0x1090 <__fp_pscB>
    1124:	20 f0       	brcs	.+8      	; 0x112e <.L1^B1>
    1126:	95 23       	and	r25, r21
    1128:	11 f0       	breq	.+4      	; 0x112e <.L1^B1>
    112a:	0c 94 38 08 	jmp	0x1070	; 0x1070 <__fp_inf>

0000112e <.L1^B1>:
    112e:	0c 94 3e 08 	jmp	0x107c	; 0x107c <__fp_nan>

00001132 <.L2^B1>:
    1132:	11 24       	eor	r1, r1
    1134:	0c 94 83 08 	jmp	0x1106	; 0x1106 <__fp_szero>

00001138 <__mulsf3x>:
    1138:	0e 94 60 08 	call	0x10c0	; 0x10c0 <__fp_split3>
    113c:	70 f3       	brcs	.-36     	; 0x111a <.L^B1>

0000113e <__mulsf3_pse>:
    113e:	95 9f       	mul	r25, r21
    1140:	c1 f3       	breq	.-16     	; 0x1132 <.L2^B1>
    1142:	95 0f       	add	r25, r21
    1144:	50 e0       	ldi	r21, 0x00	; 0
    1146:	55 1f       	adc	r21, r21
    1148:	62 9f       	mul	r22, r18
    114a:	f0 01       	movw	r30, r0
    114c:	72 9f       	mul	r23, r18
    114e:	bb 27       	eor	r27, r27
    1150:	f0 0d       	add	r31, r0
    1152:	b1 1d       	adc	r27, r1
    1154:	63 9f       	mul	r22, r19
    1156:	aa 27       	eor	r26, r26
    1158:	f0 0d       	add	r31, r0
    115a:	b1 1d       	adc	r27, r1
    115c:	aa 1f       	adc	r26, r26
    115e:	64 9f       	mul	r22, r20
    1160:	66 27       	eor	r22, r22
    1162:	b0 0d       	add	r27, r0
    1164:	a1 1d       	adc	r26, r1
    1166:	66 1f       	adc	r22, r22
    1168:	82 9f       	mul	r24, r18
    116a:	22 27       	eor	r18, r18
    116c:	b0 0d       	add	r27, r0
    116e:	a1 1d       	adc	r26, r1
    1170:	62 1f       	adc	r22, r18
    1172:	73 9f       	mul	r23, r19
    1174:	b0 0d       	add	r27, r0
    1176:	a1 1d       	adc	r26, r1
    1178:	62 1f       	adc	r22, r18
    117a:	83 9f       	mul	r24, r19
    117c:	a0 0d       	add	r26, r0
    117e:	61 1d       	adc	r22, r1
    1180:	22 1f       	adc	r18, r18
    1182:	74 9f       	mul	r23, r20
    1184:	33 27       	eor	r19, r19
    1186:	a0 0d       	add	r26, r0
    1188:	61 1d       	adc	r22, r1
    118a:	23 1f       	adc	r18, r19
    118c:	84 9f       	mul	r24, r20
    118e:	60 0d       	add	r22, r0
    1190:	21 1d       	adc	r18, r1
    1192:	82 2f       	mov	r24, r18
    1194:	76 2f       	mov	r23, r22
    1196:	6a 2f       	mov	r22, r26
    1198:	11 24       	eor	r1, r1
    119a:	9f 57       	subi	r25, 0x7F	; 127
    119c:	50 40       	sbci	r21, 0x00	; 0
    119e:	9a f0       	brmi	.+38     	; 0x11c6 <.L13^B1>
    11a0:	f1 f0       	breq	.+60     	; 0x11de <.L15^B1>

000011a2 <.L10^B1>:
    11a2:	88 23       	and	r24, r24
    11a4:	4a f0       	brmi	.+18     	; 0x11b8 <.L11^B1>
    11a6:	ee 0f       	add	r30, r30
    11a8:	ff 1f       	adc	r31, r31
    11aa:	bb 1f       	adc	r27, r27
    11ac:	66 1f       	adc	r22, r22
    11ae:	77 1f       	adc	r23, r23
    11b0:	88 1f       	adc	r24, r24
    11b2:	91 50       	subi	r25, 0x01	; 1
    11b4:	50 40       	sbci	r21, 0x00	; 0
    11b6:	a9 f7       	brne	.-22     	; 0x11a2 <.L10^B1>

000011b8 <.L11^B1>:
    11b8:	9e 3f       	cpi	r25, 0xFE	; 254
    11ba:	51 05       	cpc	r21, r1
    11bc:	80 f0       	brcs	.+32     	; 0x11de <.L15^B1>
    11be:	0c 94 38 08 	jmp	0x1070	; 0x1070 <__fp_inf>

000011c2 <.L12^B1>:
    11c2:	0c 94 83 08 	jmp	0x1106	; 0x1106 <__fp_szero>

000011c6 <.L13^B1>:
    11c6:	5f 3f       	cpi	r21, 0xFF	; 255
    11c8:	e4 f3       	brlt	.-8      	; 0x11c2 <.L12^B1>
    11ca:	98 3e       	cpi	r25, 0xE8	; 232
    11cc:	d4 f3       	brlt	.-12     	; 0x11c2 <.L12^B1>

000011ce <.L14^B1>:
    11ce:	86 95       	lsr	r24
    11d0:	77 95       	ror	r23
    11d2:	67 95       	ror	r22
    11d4:	b7 95       	ror	r27
    11d6:	f7 95       	ror	r31
    11d8:	e7 95       	ror	r30
    11da:	9f 5f       	subi	r25, 0xFF	; 255
    11dc:	c1 f7       	brne	.-16     	; 0x11ce <.L14^B1>

000011de <.L15^B1>:
    11de:	fe 2b       	or	r31, r30
    11e0:	88 0f       	add	r24, r24
    11e2:	91 1d       	adc	r25, r1
    11e4:	96 95       	lsr	r25
    11e6:	87 95       	ror	r24
    11e8:	97 f9       	bld	r25, 7
    11ea:	08 95       	ret

000011ec <_exit>:
    11ec:	f8 94       	cli

000011ee <__stop_program>:
    11ee:	ff cf       	rjmp	.-2      	; 0x11ee <__stop_program>
