
bin\Debug\AGV_project_deel2.elf:     file format elf32-avr

Sections:
Idx Name          Size      VMA       LMA       File off  Algn
  0 .data         00000004  00800200  0000121c  000012d0  2**0
                  CONTENTS, ALLOC, LOAD, DATA
  1 .text         0000121c  00000000  00000000  000000b4  2**1
                  CONTENTS, ALLOC, LOAD, READONLY, CODE
  2 .bss          00000018  00800204  00800204  000012d4  2**0
                  ALLOC
  3 .fuse         00000003  00820000  00820000  000012d4  2**0
                  CONTENTS, ALLOC, LOAD, DATA
  4 .comment      00000012  00000000  00000000  000012d7  2**0
                  CONTENTS, READONLY
  5 .note.gnu.avr.deviceinfo 00000040  00000000  00000000  000012ec  2**2
                  CONTENTS, READONLY, OCTETS
  6 .debug_aranges 00000178  00000000  00000000  00001330  2**3
                  CONTENTS, READONLY, DEBUGGING, OCTETS
  7 .debug_info   00002140  00000000  00000000  000014a8  2**0
                  CONTENTS, READONLY, DEBUGGING, OCTETS
  8 .debug_abbrev 00001415  00000000  00000000  000035e8  2**0
                  CONTENTS, READONLY, DEBUGGING, OCTETS
  9 .debug_line   00001d44  00000000  00000000  000049fd  2**0
                  CONTENTS, READONLY, DEBUGGING, OCTETS
 10 .debug_frame  000003b4  00000000  00000000  00006744  2**2
                  CONTENTS, READONLY, DEBUGGING, OCTETS
 11 .debug_str    000008aa  00000000  00000000  00006af8  2**0
                  CONTENTS, READONLY, DEBUGGING, OCTETS
 12 .debug_line_str 000002dd  00000000  00000000  000073a2  2**0
                  CONTENTS, READONLY, DEBUGGING, OCTETS
 13 .debug_loclists 000005e7  00000000  00000000  0000767f  2**0
                  CONTENTS, READONLY, DEBUGGING, OCTETS
 14 .debug_rnglists 0000002c  00000000  00000000  00007c66  2**0
                  CONTENTS, READONLY, DEBUGGING, OCTETS

Disassembly of section .text:

00000000 <__vectors>:
       0:	0c 94 72 00 	jmp	0xe4	; 0xe4 <__ctors_end>
       4:	0c 94 b7 00 	jmp	0x16e	; 0x16e <__vector_1>
       8:	0c 94 93 00 	jmp	0x126	; 0x126 <__bad_interrupt>
       c:	0c 94 93 00 	jmp	0x126	; 0x126 <__bad_interrupt>
      10:	0c 94 93 00 	jmp	0x126	; 0x126 <__bad_interrupt>
      14:	0c 94 cf 00 	jmp	0x19e	; 0x19e <__vector_5>
      18:	0c 94 93 00 	jmp	0x126	; 0x126 <__bad_interrupt>
      1c:	0c 94 93 00 	jmp	0x126	; 0x126 <__bad_interrupt>
      20:	0c 94 93 00 	jmp	0x126	; 0x126 <__bad_interrupt>
      24:	0c 94 93 00 	jmp	0x126	; 0x126 <__bad_interrupt>
      28:	0c 94 93 00 	jmp	0x126	; 0x126 <__bad_interrupt>
      2c:	0c 94 93 00 	jmp	0x126	; 0x126 <__bad_interrupt>
      30:	0c 94 93 00 	jmp	0x126	; 0x126 <__bad_interrupt>
      34:	0c 94 93 00 	jmp	0x126	; 0x126 <__bad_interrupt>
      38:	0c 94 93 00 	jmp	0x126	; 0x126 <__bad_interrupt>
      3c:	0c 94 93 00 	jmp	0x126	; 0x126 <__bad_interrupt>
      40:	0c 94 93 00 	jmp	0x126	; 0x126 <__bad_interrupt>
      44:	0c 94 93 00 	jmp	0x126	; 0x126 <__bad_interrupt>
      48:	0c 94 93 00 	jmp	0x126	; 0x126 <__bad_interrupt>
      4c:	0c 94 93 00 	jmp	0x126	; 0x126 <__bad_interrupt>
      50:	0c 94 93 00 	jmp	0x126	; 0x126 <__bad_interrupt>
      54:	0c 94 93 00 	jmp	0x126	; 0x126 <__bad_interrupt>
      58:	0c 94 93 00 	jmp	0x126	; 0x126 <__bad_interrupt>
      5c:	0c 94 93 00 	jmp	0x126	; 0x126 <__bad_interrupt>
      60:	0c 94 93 00 	jmp	0x126	; 0x126 <__bad_interrupt>
      64:	0c 94 93 00 	jmp	0x126	; 0x126 <__bad_interrupt>
      68:	0c 94 93 00 	jmp	0x126	; 0x126 <__bad_interrupt>
      6c:	0c 94 93 00 	jmp	0x126	; 0x126 <__bad_interrupt>
      70:	0c 94 93 00 	jmp	0x126	; 0x126 <__bad_interrupt>
      74:	0c 94 93 00 	jmp	0x126	; 0x126 <__bad_interrupt>
      78:	0c 94 93 00 	jmp	0x126	; 0x126 <__bad_interrupt>
      7c:	0c 94 93 00 	jmp	0x126	; 0x126 <__bad_interrupt>
      80:	0c 94 93 00 	jmp	0x126	; 0x126 <__bad_interrupt>
      84:	0c 94 93 00 	jmp	0x126	; 0x126 <__bad_interrupt>
      88:	0c 94 93 00 	jmp	0x126	; 0x126 <__bad_interrupt>
      8c:	0c 94 a2 00 	jmp	0x144	; 0x144 <__vector_35>
      90:	0c 94 93 00 	jmp	0x126	; 0x126 <__bad_interrupt>
      94:	0c 94 93 00 	jmp	0x126	; 0x126 <__bad_interrupt>
      98:	0c 94 93 00 	jmp	0x126	; 0x126 <__bad_interrupt>
      9c:	0c 94 93 00 	jmp	0x126	; 0x126 <__bad_interrupt>
      a0:	0c 94 93 00 	jmp	0x126	; 0x126 <__bad_interrupt>
      a4:	0c 94 93 00 	jmp	0x126	; 0x126 <__bad_interrupt>
      a8:	0c 94 93 00 	jmp	0x126	; 0x126 <__bad_interrupt>
      ac:	0c 94 93 00 	jmp	0x126	; 0x126 <__bad_interrupt>
      b0:	0c 94 93 00 	jmp	0x126	; 0x126 <__bad_interrupt>
      b4:	0c 94 93 00 	jmp	0x126	; 0x126 <__bad_interrupt>
      b8:	0c 94 93 00 	jmp	0x126	; 0x126 <__bad_interrupt>
      bc:	0c 94 93 00 	jmp	0x126	; 0x126 <__bad_interrupt>
      c0:	0c 94 93 00 	jmp	0x126	; 0x126 <__bad_interrupt>
      c4:	0c 94 93 00 	jmp	0x126	; 0x126 <__bad_interrupt>
      c8:	0c 94 93 00 	jmp	0x126	; 0x126 <__bad_interrupt>
      cc:	0c 94 93 00 	jmp	0x126	; 0x126 <__bad_interrupt>
      d0:	0c 94 93 00 	jmp	0x126	; 0x126 <__bad_interrupt>
      d4:	0c 94 93 00 	jmp	0x126	; 0x126 <__bad_interrupt>
      d8:	0c 94 93 00 	jmp	0x126	; 0x126 <__bad_interrupt>
      dc:	0c 94 93 00 	jmp	0x126	; 0x126 <__bad_interrupt>
      e0:	0c 94 93 00 	jmp	0x126	; 0x126 <__bad_interrupt>

000000e4 <__ctors_end>:
      e4:	11 24       	eor	r1, r1
      e6:	1f be       	out	0x3f, r1	; 63
      e8:	cf ef       	ldi	r28, 0xFF	; 255
      ea:	d1 e2       	ldi	r29, 0x21	; 33
      ec:	de bf       	out	0x3e, r29	; 62
      ee:	cd bf       	out	0x3d, r28	; 61
      f0:	00 e0       	ldi	r16, 0x00	; 0
      f2:	0c bf       	out	0x3c, r16	; 60

000000f4 <__do_copy_data>:
      f4:	12 e0       	ldi	r17, 0x02	; 2

000000f6 <.Loc.1>:
      f6:	a0 e0       	ldi	r26, 0x00	; 0

000000f8 <.Loc.2>:
      f8:	b2 e0       	ldi	r27, 0x02	; 2

000000fa <.Loc.3>:
      fa:	ec e1       	ldi	r30, 0x1C	; 28

000000fc <.Loc.4>:
      fc:	f2 e1       	ldi	r31, 0x12	; 18

000000fe <.Loc.5>:
      fe:	00 e0       	ldi	r16, 0x00	; 0

00000100 <.Loc.6>:
     100:	0b bf       	out	0x3b, r16	; 59

00000102 <.Loc.7>:
     102:	02 c0       	rjmp	.+4      	; 0x108 <.L__do_copy_data_start>

00000104 <.L__do_copy_data_loop>:
     104:	07 90       	elpm	r0, Z+

00000106 <.Loc.9>:
     106:	0d 92       	st	X+, r0

00000108 <.L__do_copy_data_start>:
     108:	a4 30       	cpi	r26, 0x04	; 4

0000010a <.Loc.11>:
     10a:	b1 07       	cpc	r27, r17

0000010c <.Loc.12>:
     10c:	d9 f7       	brne	.-10     	; 0x104 <.L__do_copy_data_loop>

0000010e <__do_clear_bss>:
     10e:	22 e0       	ldi	r18, 0x02	; 2

00000110 <.Loc.1>:
     110:	a4 e0       	ldi	r26, 0x04	; 4

00000112 <.Loc.2>:
     112:	b2 e0       	ldi	r27, 0x02	; 2

00000114 <.Loc.3>:
     114:	01 c0       	rjmp	.+2      	; 0x118 <.Loc.5>

00000116 <.Loc.4>:
     116:	1d 92       	st	X+, r1

00000118 <.Loc.5>:
     118:	ac 31       	cpi	r26, 0x1C	; 28

0000011a <.Loc.6>:
     11a:	b2 07       	cpc	r27, r18

0000011c <.Loc.7>:
     11c:	e1 f7       	brne	.-8      	; 0x116 <.Loc.4>

0000011e <L0^A>:
     11e:	0e 94 65 01 	call	0x2ca	; 0x2ca <main>
     122:	0c 94 0c 09 	jmp	0x1218	; 0x1218 <_exit>

00000126 <__bad_interrupt>:
     126:	0c 94 00 00 	jmp	0	; 0x0 <__vectors>

0000012a <acknowledge_agv>:
     12a:	a2 9a       	sbi	0x14, 2	; 20

0000012c <.Loc.3>:
     12c:	10 92 95 00 	sts	0x0095, r1	; 0x800095 <__TEXT_REGION_LENGTH__+0x700095>
     130:	10 92 94 00 	sts	0x0094, r1	; 0x800094 <__TEXT_REGION_LENGTH__+0x700094>

00000134 <.Loc.5>:
     134:	81 e0       	ldi	r24, 0x01	; 1
     136:	88 bb       	out	0x18, r24	; 24

00000138 <.Loc.7>:
     138:	e1 e7       	ldi	r30, 0x71	; 113
     13a:	f0 e0       	ldi	r31, 0x00	; 0
     13c:	80 81       	ld	r24, Z

0000013e <.Loc.8>:
     13e:	81 60       	ori	r24, 0x01	; 1
     140:	80 83       	st	Z, r24

00000142 <.Loc.9>:
     142:	08 95       	ret

00000144 <__vector_35>:
     144:	8f 93       	push	r24
     146:	8f b7       	in	r24, 0x3f	; 63
     148:	8f 93       	push	r24
     14a:	8b b7       	in	r24, 0x3b	; 59
     14c:	8f 93       	push	r24
     14e:	ef 93       	push	r30
     150:	ff 93       	push	r31

00000152 <.Loc.11>:
     152:	a2 98       	cbi	0x14, 2	; 20

00000154 <.Loc.13>:
     154:	e1 e7       	ldi	r30, 0x71	; 113
     156:	f0 e0       	ldi	r31, 0x00	; 0
     158:	80 81       	ld	r24, Z
     15a:	8e 7f       	andi	r24, 0xFE	; 254
     15c:	80 83       	st	Z, r24

0000015e <.Loc.15>:
     15e:	ff 91       	pop	r31
     160:	ef 91       	pop	r30
     162:	8f 91       	pop	r24
     164:	8b bf       	out	0x3b, r24	; 59
     166:	8f 91       	pop	r24
     168:	8f bf       	out	0x3f, r24	; 63
     16a:	8f 91       	pop	r24
     16c:	18 95       	reti

0000016e <__vector_1>:
     16e:	2f 93       	push	r18
     170:	2f b7       	in	r18, 0x3f	; 63
     172:	2f 93       	push	r18
     174:	8f 93       	push	r24
     176:	9f 93       	push	r25

00000178 <.Loc.1>:
     178:	40 98       	cbi	0x08, 0	; 8

0000017a <.Loc.3>:
     17a:	5f 98       	cbi	0x0b, 7	; 11

0000017c <.Loc.5>:
     17c:	2f 98       	cbi	0x05, 7	; 5

0000017e <.LBB4>:
     17e:	2f ef       	ldi	r18, 0xFF	; 255
     180:	89 e6       	ldi	r24, 0x69	; 105
     182:	98 e1       	ldi	r25, 0x18	; 24

00000184 <.L1^B1>:
     184:	21 50       	subi	r18, 0x01	; 1
     186:	80 40       	sbci	r24, 0x00	; 0
     188:	90 40       	sbci	r25, 0x00	; 0
     18a:	e1 f7       	brne	.-8      	; 0x184 <.L1^B1>
     18c:	00 c0       	rjmp	.+0      	; 0x18e <L0^A>

0000018e <L0^A>:
	...

00000190 <.LBE4>:
     190:	2f 9a       	sbi	0x05, 7	; 5

00000192 <.Loc.18>:
     192:	9f 91       	pop	r25
     194:	8f 91       	pop	r24
     196:	2f 91       	pop	r18
     198:	2f bf       	out	0x3f, r18	; 63
     19a:	2f 91       	pop	r18
     19c:	18 95       	reti

0000019e <__vector_5>:
     19e:	1f 92       	push	r1
     1a0:	0f 92       	push	r0
     1a2:	0f b6       	in	r0, 0x3f	; 63
     1a4:	0f 92       	push	r0
     1a6:	11 24       	eor	r1, r1
     1a8:	0b b6       	in	r0, 0x3b	; 59
     1aa:	0f 92       	push	r0
     1ac:	2f 93       	push	r18
     1ae:	3f 93       	push	r19
     1b0:	4f 93       	push	r20
     1b2:	5f 93       	push	r21
     1b4:	6f 93       	push	r22
     1b6:	7f 93       	push	r23
     1b8:	8f 93       	push	r24
     1ba:	9f 93       	push	r25
     1bc:	af 93       	push	r26
     1be:	bf 93       	push	r27
     1c0:	ef 93       	push	r30
     1c2:	ff 93       	push	r31

000001c4 <.Loc.20>:
     1c4:	81 e0       	ldi	r24, 0x01	; 1
     1c6:	90 e0       	ldi	r25, 0x00	; 0
     1c8:	0e 94 82 03 	call	0x704	; 0x704 <lijnInterrupt>

000001cc <.LVL2>:
     1cc:	ff 91       	pop	r31
     1ce:	ef 91       	pop	r30
     1d0:	bf 91       	pop	r27
     1d2:	af 91       	pop	r26
     1d4:	9f 91       	pop	r25
     1d6:	8f 91       	pop	r24
     1d8:	7f 91       	pop	r23
     1da:	6f 91       	pop	r22
     1dc:	5f 91       	pop	r21
     1de:	4f 91       	pop	r20
     1e0:	3f 91       	pop	r19
     1e2:	2f 91       	pop	r18
     1e4:	0f 90       	pop	r0
     1e6:	0b be       	out	0x3b, r0	; 59
     1e8:	0f 90       	pop	r0
     1ea:	0f be       	out	0x3f, r0	; 63
     1ec:	0f 90       	pop	r0
     1ee:	1f 90       	pop	r1
     1f0:	18 95       	reti

000001f2 <init_rfid_module>:
     1f2:	e1 ea       	ldi	r30, 0xA1	; 161
     1f4:	f0 e0       	ldi	r31, 0x00	; 0
     1f6:	80 81       	ld	r24, Z

000001f8 <.Loc.24>:
     1f8:	84 60       	ori	r24, 0x04	; 4
     1fa:	80 83       	st	Z, r24

000001fc <.Loc.25>:
     1fc:	80 81       	ld	r24, Z
     1fe:	8d 7f       	andi	r24, 0xFD	; 253
     200:	80 83       	st	Z, r24

00000202 <.Loc.27>:
     202:	80 81       	ld	r24, Z
     204:	8e 7f       	andi	r24, 0xFE	; 254
     206:	80 83       	st	Z, r24

00000208 <.Loc.29>:
     208:	08 95       	ret

0000020a <init_us_sensor>:
     20a:	3f 98       	cbi	0x07, 7	; 7

0000020c <.Loc.33>:
     20c:	0e 98       	cbi	0x01, 6	; 1

0000020e <.Loc.35>:
     20e:	3b 98       	cbi	0x07, 3	; 7

00000210 <.Loc.37>:
     210:	3d 98       	cbi	0x07, 5	; 7

00000212 <.Loc.39>:
     212:	3e 9a       	sbi	0x07, 6	; 7

00000214 <.Loc.41>:
     214:	0f 9a       	sbi	0x01, 7	; 1

00000216 <.Loc.43>:
     216:	3a 9a       	sbi	0x07, 2	; 7

00000218 <.Loc.45>:
     218:	3c 9a       	sbi	0x07, 4	; 7

0000021a <.Loc.47>:
     21a:	47 98       	cbi	0x08, 7	; 8

0000021c <.Loc.49>:
     21c:	16 98       	cbi	0x02, 6	; 2

0000021e <.Loc.51>:
     21e:	43 98       	cbi	0x08, 3	; 8

00000220 <.Loc.53>:
     220:	45 98       	cbi	0x08, 5	; 8

00000222 <.Loc.55>:
     222:	08 95       	ret

00000224 <init_lijndetectieIR>:
     224:	6c 98       	cbi	0x0d, 4	; 13

00000226 <.Loc.59>:
     226:	74 98       	cbi	0x0e, 4	; 14

00000228 <.Loc.61>:
     228:	ea e6       	ldi	r30, 0x6A	; 106
     22a:	f0 e0       	ldi	r31, 0x00	; 0
     22c:	80 81       	ld	r24, Z

0000022e <.Loc.62>:
     22e:	83 60       	ori	r24, 0x03	; 3
     230:	80 83       	st	Z, r24

00000232 <.Loc.63>:
     232:	08 95       	ret

00000234 <init_h_brug_dual>:
     234:	aa e0       	ldi	r26, 0x0A	; 10
     236:	b1 e0       	ldi	r27, 0x01	; 1
     238:	8c 91       	ld	r24, X

0000023a <.Loc.66>:
     23a:	80 62       	ori	r24, 0x20	; 32
     23c:	8c 93       	st	X, r24

0000023e <.Loc.67>:
     23e:	8c 91       	ld	r24, X

00000240 <.Loc.68>:
     240:	88 60       	ori	r24, 0x08	; 8
     242:	8c 93       	st	X, r24

00000244 <.Loc.69>:
     244:	eb e0       	ldi	r30, 0x0B	; 11
     246:	f1 e0       	ldi	r31, 0x01	; 1
     248:	80 81       	ld	r24, Z
     24a:	8f 7d       	andi	r24, 0xDF	; 223
     24c:	80 83       	st	Z, r24

0000024e <.Loc.71>:
     24e:	80 81       	ld	r24, Z
     250:	87 7f       	andi	r24, 0xF7	; 247
     252:	80 83       	st	Z, r24

00000254 <.Loc.73>:
     254:	8c 91       	ld	r24, X

00000256 <.Loc.74>:
     256:	80 64       	ori	r24, 0x40	; 64
     258:	8c 93       	st	X, r24

0000025a <.Loc.75>:
     25a:	8c 91       	ld	r24, X

0000025c <.Loc.76>:
     25c:	80 61       	ori	r24, 0x10	; 16
     25e:	8c 93       	st	X, r24

00000260 <.Loc.77>:
     260:	8c 91       	ld	r24, X

00000262 <.Loc.78>:
     262:	84 60       	ori	r24, 0x04	; 4
     264:	8c 93       	st	X, r24

00000266 <.Loc.79>:
     266:	8c 91       	ld	r24, X

00000268 <.Loc.80>:
     268:	81 60       	ori	r24, 0x01	; 1
     26a:	8c 93       	st	X, r24

0000026c <.Loc.81>:
     26c:	80 81       	ld	r24, Z
     26e:	8f 7b       	andi	r24, 0xBF	; 191
     270:	80 83       	st	Z, r24

00000272 <.Loc.83>:
     272:	80 81       	ld	r24, Z
     274:	8f 7e       	andi	r24, 0xEF	; 239
     276:	80 83       	st	Z, r24

00000278 <.Loc.85>:
     278:	80 81       	ld	r24, Z
     27a:	8b 7f       	andi	r24, 0xFB	; 251
     27c:	80 83       	st	Z, r24

0000027e <.Loc.87>:
     27e:	80 81       	ld	r24, Z
     280:	8e 7f       	andi	r24, 0xFE	; 254
     282:	80 83       	st	Z, r24

00000284 <.Loc.89>:
     284:	08 95       	ret

00000286 <init_communicatie>:
     286:	98 98       	cbi	0x13, 0	; 19

00000288 <.Loc.93>:
     288:	99 98       	cbi	0x13, 1	; 19

0000028a <.Loc.95>:
     28a:	50 98       	cbi	0x0a, 0	; 10

0000028c <.Loc.97>:
     28c:	38 9a       	sbi	0x07, 0	; 7

0000028e <.Loc.100>:
     28e:	9a 9a       	sbi	0x13, 2	; 19

00000290 <.Loc.101>:
     290:	57 9a       	sbi	0x0a, 7	; 10

00000292 <.Loc.103>:
     292:	40 98       	cbi	0x08, 0	; 8

00000294 <.Loc.105>:
     294:	a2 98       	cbi	0x14, 2	; 20

00000296 <.Loc.107>:
     296:	5f 98       	cbi	0x0b, 7	; 11

00000298 <.Loc.109>:
     298:	a0 98       	cbi	0x14, 0	; 20

0000029a <.Loc.111>:
     29a:	a0 98       	cbi	0x14, 0	; 20

0000029c <.Loc.113>:
     29c:	58 98       	cbi	0x0b, 0	; 11

0000029e <.Loc.115>:
     29e:	e8 9a       	sbi	0x1d, 0	; 29

000002a0 <.Loc.117>:
     2a0:	e9 e6       	ldi	r30, 0x69	; 105
     2a2:	f0 e0       	ldi	r31, 0x00	; 0
     2a4:	80 81       	ld	r24, Z

000002a6 <.Loc.118>:
     2a6:	83 60       	ori	r24, 0x03	; 3
     2a8:	80 83       	st	Z, r24

000002aa <.Loc.119>:
     2aa:	82 e0       	ldi	r24, 0x02	; 2
     2ac:	80 93 91 00 	sts	0x0091, r24	; 0x800091 <__TEXT_REGION_LENGTH__+0x700091>

000002b0 <.Loc.121>:
     2b0:	08 95       	ret

000002b2 <init>:
     2b2:	0e 94 f9 00 	call	0x1f2	; 0x1f2 <init_rfid_module>

000002b6 <.LVL3>:
     2b6:	0e 94 05 01 	call	0x20a	; 0x20a <init_us_sensor>

000002ba <.LVL4>:
     2ba:	0e 94 12 01 	call	0x224	; 0x224 <init_lijndetectieIR>

000002be <.LVL5>:
     2be:	0e 94 1a 01 	call	0x234	; 0x234 <init_h_brug_dual>

000002c2 <.LVL6>:
     2c2:	0e 94 43 01 	call	0x286	; 0x286 <init_communicatie>

000002c6 <.LVL7>:
     2c6:	78 94       	sei

000002c8 <.Loc.129>:
     2c8:	08 95       	ret

000002ca <main>:
     2ca:	0e 94 59 01 	call	0x2b2	; 0x2b2 <init>

000002ce <.LBB4>:
     2ce:	2f ef       	ldi	r18, 0xFF	; 255
     2d0:	83 ed       	ldi	r24, 0xD3	; 211
     2d2:	90 e3       	ldi	r25, 0x30	; 48

000002d4 <.L1^B1>:
     2d4:	21 50       	subi	r18, 0x01	; 1
     2d6:	80 40       	sbci	r24, 0x00	; 0
     2d8:	90 40       	sbci	r25, 0x00	; 0
     2da:	e1 f7       	brne	.-8      	; 0x2d4 <.L1^B1>
     2dc:	00 c0       	rjmp	.+0      	; 0x2de <L0^A>

000002de <L0^A>:
	...

000002e0 <.LBE4>:
     2e0:	60 e0       	ldi	r22, 0x00	; 0
     2e2:	70 e0       	ldi	r23, 0x00	; 0
     2e4:	80 e0       	ldi	r24, 0x00	; 0
     2e6:	90 e0       	ldi	r25, 0x00	; 0
     2e8:	0e 94 eb 01 	call	0x3d6	; 0x3d6 <motor_config>

000002ec <.LVL2>:
     2ec:	61 e0       	ldi	r22, 0x01	; 1
     2ee:	70 e0       	ldi	r23, 0x00	; 0
     2f0:	80 e0       	ldi	r24, 0x00	; 0
     2f2:	90 e0       	ldi	r25, 0x00	; 0
     2f4:	0e 94 eb 01 	call	0x3d6	; 0x3d6 <motor_config>

000002f8 <.LVL3>:
     2f8:	60 e0       	ldi	r22, 0x00	; 0
     2fa:	70 e0       	ldi	r23, 0x00	; 0
     2fc:	80 e8       	ldi	r24, 0x80	; 128
     2fe:	9f e3       	ldi	r25, 0x3F	; 63
     300:	0e 94 bb 01 	call	0x376	; 0x376 <motor_L>

00000304 <.LVL4>:
     304:	60 e0       	ldi	r22, 0x00	; 0
     306:	70 e0       	ldi	r23, 0x00	; 0
     308:	80 e8       	ldi	r24, 0x80	; 128
     30a:	9f e3       	ldi	r25, 0x3F	; 63
     30c:	0e 94 8b 01 	call	0x316	; 0x316 <motor_R>

00000310 <.L2>:
     310:	0e 94 df 02 	call	0x5be	; 0x5be <padNavigerenNorm>

00000314 <.LVL6>:
     314:	fd cf       	rjmp	.-6      	; 0x310 <.L2>

00000316 <motor_R>:
     316:	cf 93       	push	r28
     318:	df 93       	push	r29
     31a:	00 d0       	rcall	.+0      	; 0x31c <L0^A>

0000031c <L0^A>:
     31c:	0f 92       	push	r0
     31e:	cd b7       	in	r28, 0x3d	; 61
     320:	de b7       	in	r29, 0x3e	; 62

00000322 <.Loc.2>:
     322:	20 e0       	ldi	r18, 0x00	; 0
     324:	30 e6       	ldi	r19, 0x60	; 96
     326:	4a ee       	ldi	r20, 0xEA	; 234
     328:	56 e4       	ldi	r21, 0x46	; 70
     32a:	69 83       	std	Y+1, r22	; 0x01
     32c:	7a 83       	std	Y+2, r23	; 0x02
     32e:	8b 83       	std	Y+3, r24	; 0x03
     330:	9c 83       	std	Y+4, r25	; 0x04
     332:	69 81       	ldd	r22, Y+1	; 0x01
     334:	7a 81       	ldd	r23, Y+2	; 0x02
     336:	8b 81       	ldd	r24, Y+3	; 0x03
     338:	9c 81       	ldd	r25, Y+4	; 0x04

0000033a <.Loc.4>:
     33a:	0e 94 9f 08 	call	0x113e	; 0x113e <__mulsf3>

0000033e <.LVL2>:
     33e:	69 83       	std	Y+1, r22	; 0x01
     340:	7a 83       	std	Y+2, r23	; 0x02
     342:	8b 83       	std	Y+3, r24	; 0x03
     344:	9c 83       	std	Y+4, r25	; 0x04
     346:	69 81       	ldd	r22, Y+1	; 0x01
     348:	7a 81       	ldd	r23, Y+2	; 0x02
     34a:	8b 81       	ldd	r24, Y+3	; 0x03
     34c:	9c 81       	ldd	r25, Y+4	; 0x04
     34e:	0e 94 db 07 	call	0xfb6	; 0xfb6 <__fixsfsi>

00000352 <.LVL3>:
     352:	86 2f       	mov	r24, r22
     354:	97 2f       	mov	r25, r23

00000356 <.Loc.6>:
     356:	99 23       	and	r25, r25
     358:	5c f0       	brlt	.+22     	; 0x370 <.L4>

0000035a <.L2>:
     35a:	90 93 2d 01 	sts	0x012D, r25	; 0x80012d <__TEXT_REGION_LENGTH__+0x70012d>
     35e:	80 93 2c 01 	sts	0x012C, r24	; 0x80012c <__TEXT_REGION_LENGTH__+0x70012c>

00000362 <.Loc.10>:
     362:	0f 90       	pop	r0
     364:	0f 90       	pop	r0
     366:	0f 90       	pop	r0
     368:	0f 90       	pop	r0
     36a:	df 91       	pop	r29
     36c:	cf 91       	pop	r28
     36e:	08 95       	ret

00000370 <.L4>:
     370:	80 e4       	ldi	r24, 0x40	; 64
     372:	9c e9       	ldi	r25, 0x9C	; 156
     374:	f2 cf       	rjmp	.-28     	; 0x35a <.L2>

00000376 <motor_L>:
     376:	cf 93       	push	r28
     378:	df 93       	push	r29
     37a:	00 d0       	rcall	.+0      	; 0x37c <L0^A>

0000037c <L0^A>:
     37c:	0f 92       	push	r0
     37e:	cd b7       	in	r28, 0x3d	; 61
     380:	de b7       	in	r29, 0x3e	; 62

00000382 <.Loc.14>:
     382:	20 e0       	ldi	r18, 0x00	; 0
     384:	30 e6       	ldi	r19, 0x60	; 96
     386:	4a ee       	ldi	r20, 0xEA	; 234
     388:	56 e4       	ldi	r21, 0x46	; 70
     38a:	69 83       	std	Y+1, r22	; 0x01
     38c:	7a 83       	std	Y+2, r23	; 0x02
     38e:	8b 83       	std	Y+3, r24	; 0x03
     390:	9c 83       	std	Y+4, r25	; 0x04
     392:	69 81       	ldd	r22, Y+1	; 0x01
     394:	7a 81       	ldd	r23, Y+2	; 0x02
     396:	8b 81       	ldd	r24, Y+3	; 0x03
     398:	9c 81       	ldd	r25, Y+4	; 0x04

0000039a <.Loc.16>:
     39a:	0e 94 9f 08 	call	0x113e	; 0x113e <__mulsf3>

0000039e <.LVL9>:
     39e:	69 83       	std	Y+1, r22	; 0x01
     3a0:	7a 83       	std	Y+2, r23	; 0x02
     3a2:	8b 83       	std	Y+3, r24	; 0x03
     3a4:	9c 83       	std	Y+4, r25	; 0x04
     3a6:	69 81       	ldd	r22, Y+1	; 0x01
     3a8:	7a 81       	ldd	r23, Y+2	; 0x02
     3aa:	8b 81       	ldd	r24, Y+3	; 0x03
     3ac:	9c 81       	ldd	r25, Y+4	; 0x04
     3ae:	0e 94 db 07 	call	0xfb6	; 0xfb6 <__fixsfsi>

000003b2 <.LVL10>:
     3b2:	86 2f       	mov	r24, r22
     3b4:	97 2f       	mov	r25, r23

000003b6 <.Loc.18>:
     3b6:	99 23       	and	r25, r25
     3b8:	5c f0       	brlt	.+22     	; 0x3d0 <.L8>

000003ba <.L6>:
     3ba:	90 93 29 01 	sts	0x0129, r25	; 0x800129 <__TEXT_REGION_LENGTH__+0x700129>
     3be:	80 93 28 01 	sts	0x0128, r24	; 0x800128 <__TEXT_REGION_LENGTH__+0x700128>

000003c2 <.Loc.22>:
     3c2:	0f 90       	pop	r0
     3c4:	0f 90       	pop	r0
     3c6:	0f 90       	pop	r0
     3c8:	0f 90       	pop	r0
     3ca:	df 91       	pop	r29
     3cc:	cf 91       	pop	r28
     3ce:	08 95       	ret

000003d0 <.L8>:
     3d0:	80 e4       	ldi	r24, 0x40	; 64
     3d2:	9c e9       	ldi	r25, 0x9C	; 156
     3d4:	f2 cf       	rjmp	.-28     	; 0x3ba <.L6>

000003d6 <motor_config>:
     3d6:	28 2f       	mov	r18, r24
     3d8:	39 2f       	mov	r19, r25
     3da:	86 2f       	mov	r24, r22

000003dc <.Loc.26>:
     3dc:	97 2f       	mov	r25, r23

000003de <.Loc.27>:
     3de:	81 30       	cpi	r24, 0x01	; 1
     3e0:	91 05       	cpc	r25, r1
     3e2:	59 f0       	breq	.+22     	; 0x3fa <.L17>

000003e4 <.Loc.31>:
     3e4:	89 2b       	or	r24, r25
     3e6:	41 f4       	brne	.+16     	; 0x3f8 <.L9>

000003e8 <.Loc.33>:
     3e8:	21 30       	cpi	r18, 0x01	; 1
     3ea:	31 05       	cpc	r19, r1
     3ec:	91 f1       	breq	.+100    	; 0x452 <.L15>
     3ee:	22 30       	cpi	r18, 0x02	; 2
     3f0:	31 05       	cpc	r19, r1
     3f2:	c1 f1       	breq	.+112    	; 0x464 <.L16>
     3f4:	23 2b       	or	r18, r19
     3f6:	21 f1       	breq	.+72     	; 0x440 <.L18>

000003f8 <.L9>:
     3f8:	08 95       	ret

000003fa <.L17>:
     3fa:	21 30       	cpi	r18, 0x01	; 1
     3fc:	31 05       	cpc	r19, r1
     3fe:	71 f0       	breq	.+28     	; 0x41c <.L11>
     400:	22 30       	cpi	r18, 0x02	; 2
     402:	31 05       	cpc	r19, r1
     404:	a1 f0       	breq	.+40     	; 0x42e <.L12>
     406:	23 2b       	or	r18, r19
     408:	b9 f7       	brne	.-18     	; 0x3f8 <.L9>

0000040a <.Loc.36>:
     40a:	eb e0       	ldi	r30, 0x0B	; 11
     40c:	f1 e0       	ldi	r31, 0x01	; 1
     40e:	80 81       	ld	r24, Z

00000410 <.Loc.37>:
     410:	84 60       	ori	r24, 0x04	; 4
     412:	80 83       	st	Z, r24

00000414 <.Loc.38>:
     414:	80 81       	ld	r24, Z
     416:	8e 7f       	andi	r24, 0xFE	; 254
     418:	80 83       	st	Z, r24

0000041a <.Loc.40>:
     41a:	08 95       	ret

0000041c <.L11>:
     41c:	eb e0       	ldi	r30, 0x0B	; 11
     41e:	f1 e0       	ldi	r31, 0x01	; 1
     420:	80 81       	ld	r24, Z

00000422 <.Loc.43>:
     422:	8b 7f       	andi	r24, 0xFB	; 251
     424:	80 83       	st	Z, r24

00000426 <.Loc.44>:
     426:	80 81       	ld	r24, Z

00000428 <.Loc.45>:
     428:	81 60       	ori	r24, 0x01	; 1
     42a:	80 83       	st	Z, r24

0000042c <.Loc.46>:
     42c:	08 95       	ret

0000042e <.L12>:
     42e:	eb e0       	ldi	r30, 0x0B	; 11
     430:	f1 e0       	ldi	r31, 0x01	; 1
     432:	80 81       	ld	r24, Z

00000434 <.Loc.48>:
     434:	84 60       	ori	r24, 0x04	; 4
     436:	80 83       	st	Z, r24

00000438 <.Loc.49>:
     438:	80 81       	ld	r24, Z

0000043a <.Loc.50>:
     43a:	81 60       	ori	r24, 0x01	; 1
     43c:	80 83       	st	Z, r24

0000043e <.Loc.51>:
     43e:	08 95       	ret

00000440 <.L18>:
     440:	eb e0       	ldi	r30, 0x0B	; 11
     442:	f1 e0       	ldi	r31, 0x01	; 1
     444:	80 81       	ld	r24, Z

00000446 <.Loc.53>:
     446:	80 64       	ori	r24, 0x40	; 64
     448:	80 83       	st	Z, r24

0000044a <.Loc.54>:
     44a:	80 81       	ld	r24, Z
     44c:	8f 7e       	andi	r24, 0xEF	; 239
     44e:	80 83       	st	Z, r24

00000450 <.Loc.56>:
     450:	08 95       	ret

00000452 <.L15>:
     452:	eb e0       	ldi	r30, 0x0B	; 11
     454:	f1 e0       	ldi	r31, 0x01	; 1
     456:	80 81       	ld	r24, Z

00000458 <.Loc.59>:
     458:	8f 7b       	andi	r24, 0xBF	; 191
     45a:	80 83       	st	Z, r24

0000045c <.Loc.60>:
     45c:	80 81       	ld	r24, Z

0000045e <.Loc.61>:
     45e:	80 61       	ori	r24, 0x10	; 16
     460:	80 83       	st	Z, r24

00000462 <.Loc.62>:
     462:	08 95       	ret

00000464 <.L16>:
     464:	eb e0       	ldi	r30, 0x0B	; 11
     466:	f1 e0       	ldi	r31, 0x01	; 1
     468:	80 81       	ld	r24, Z

0000046a <.Loc.64>:
     46a:	80 64       	ori	r24, 0x40	; 64
     46c:	80 83       	st	Z, r24

0000046e <.Loc.65>:
     46e:	80 81       	ld	r24, Z

00000470 <.Loc.66>:
     470:	80 61       	ori	r24, 0x10	; 16
     472:	80 83       	st	Z, r24

00000474 <.Loc.67>:
     474:	c1 cf       	rjmp	.-126    	; 0x3f8 <.L9>

00000476 <percentageSteering_R>:
#include "navigatie_lib.h"
#include "rfid_module_lib.h"
#include "us_sensor_lib.h"

float percentageSteering_R(int temp) //int diffAfstand
{
     476:	cf 93       	push	r28
     478:	df 93       	push	r29
     47a:	00 d0       	rcall	.+0      	; 0x47c <L0^A>

0000047c <L0^A>:
     47c:	0f 92       	push	r0
     47e:	cd b7       	in	r28, 0x3d	; 61
     480:	de b7       	in	r29, 0x3e	; 62
     482:	28 2f       	mov	r18, r24
     484:	39 2f       	mov	r19, r25

00000486 <.Loc.2>:
    static float helftPadBreedte = HALF_PAD;
    static float percentageAfwijking = 0;
    if (helftPadBreedte < temp)  percentageAfwijking = 0;
     486:	20 31       	cpi	r18, 0x10	; 16
     488:	31 05       	cpc	r19, r1
     48a:	0c f0       	brlt	.+2      	; 0x48e <.Loc.6>

0000048c <L0^A>:
     48c:	41 c0       	rjmp	.+130    	; 0x510 <.L3>

0000048e <.Loc.6>:
     48e:	c9 01       	movw	r24, r18
     490:	33 0f       	add	r19, r19
     492:	aa 0b       	sbc	r26, r26
     494:	bb 0b       	sbc	r27, r27

00000496 <.Loc.8>:
     496:	89 83       	std	Y+1, r24	; 0x01
     498:	9a 83       	std	Y+2, r25	; 0x02
     49a:	ab 83       	std	Y+3, r26	; 0x03
     49c:	bc 83       	std	Y+4, r27	; 0x04
     49e:	bc 01       	movw	r22, r24
     4a0:	cd 01       	movw	r24, r26
     4a2:	0e 94 13 08 	call	0x1026	; 0x1026 <__floatsisf>

000004a6 <.LVL2>:
    else percentageAfwijking = (helftPadBreedte - temp)/helftPadBreedte;
     4a6:	26 2f       	mov	r18, r22
     4a8:	37 2f       	mov	r19, r23
     4aa:	48 2f       	mov	r20, r24
     4ac:	59 2f       	mov	r21, r25
     4ae:	60 e0       	ldi	r22, 0x00	; 0
     4b0:	70 e0       	ldi	r23, 0x00	; 0
     4b2:	80 e7       	ldi	r24, 0x70	; 112
     4b4:	91 e4       	ldi	r25, 0x41	; 65
     4b6:	0e 94 fc 06 	call	0xdf8	; 0xdf8 <__subsf3>

000004ba <.LVL3>:
     4ba:	20 e0       	ldi	r18, 0x00	; 0
     4bc:	30 e0       	ldi	r19, 0x00	; 0
     4be:	40 e7       	ldi	r20, 0x70	; 112
     4c0:	51 e4       	ldi	r21, 0x41	; 65
     4c2:	69 83       	std	Y+1, r22	; 0x01
     4c4:	7a 83       	std	Y+2, r23	; 0x02
     4c6:	8b 83       	std	Y+3, r24	; 0x03
     4c8:	9c 83       	std	Y+4, r25	; 0x04
     4ca:	69 81       	ldd	r22, Y+1	; 0x01
     4cc:	7a 81       	ldd	r23, Y+2	; 0x02
     4ce:	8b 81       	ldd	r24, Y+3	; 0x03
     4d0:	9c 81       	ldd	r25, Y+4	; 0x04
     4d2:	0e 94 69 07 	call	0xed2	; 0xed2 <__divsf3>

000004d6 <.LVL4>:
     4d6:	36 2f       	mov	r19, r22
     4d8:	27 2f       	mov	r18, r23

000004da <.L2>:
    if (helftPadBreedte < temp)  percentageAfwijking = 0;
     4da:	43 2f       	mov	r20, r19
     4dc:	52 2f       	mov	r21, r18
     4de:	68 2f       	mov	r22, r24
     4e0:	79 2f       	mov	r23, r25
     4e2:	40 93 18 02 	sts	0x0218, r20	; 0x800218 <percentageAfwijking.10>
     4e6:	50 93 19 02 	sts	0x0219, r21	; 0x800219 <percentageAfwijking.10+0x1>
     4ea:	60 93 1a 02 	sts	0x021A, r22	; 0x80021a <percentageAfwijking.10+0x2>
     4ee:	70 93 1b 02 	sts	0x021B, r23	; 0x80021b <percentageAfwijking.10+0x3>

000004f2 <.Loc.12>:
    return percentageAfwijking;
}
     4f2:	39 83       	std	Y+1, r19	; 0x01
     4f4:	2a 83       	std	Y+2, r18	; 0x02
     4f6:	8b 83       	std	Y+3, r24	; 0x03
     4f8:	9c 83       	std	Y+4, r25	; 0x04
     4fa:	69 81       	ldd	r22, Y+1	; 0x01
     4fc:	7a 81       	ldd	r23, Y+2	; 0x02
     4fe:	8b 81       	ldd	r24, Y+3	; 0x03
     500:	9c 81       	ldd	r25, Y+4	; 0x04
     502:	0f 90       	pop	r0
     504:	0f 90       	pop	r0
     506:	0f 90       	pop	r0
     508:	0f 90       	pop	r0
     50a:	df 91       	pop	r29
     50c:	cf 91       	pop	r28
     50e:	08 95       	ret

00000510 <.L3>:
     510:	30 e0       	ldi	r19, 0x00	; 0
     512:	20 e0       	ldi	r18, 0x00	; 0
     514:	80 e0       	ldi	r24, 0x00	; 0

00000516 <.Loc.15>:
     516:	90 e0       	ldi	r25, 0x00	; 0
     518:	e0 cf       	rjmp	.-64     	; 0x4da <.L2>

0000051a <percentageSteering_L>:

float percentageSteering_L(int temp) //int diffAfstand
{
     51a:	cf 93       	push	r28
     51c:	df 93       	push	r29
     51e:	00 d0       	rcall	.+0      	; 0x520 <L0^A>

00000520 <L0^A>:
     520:	0f 92       	push	r0
     522:	cd b7       	in	r28, 0x3d	; 61
     524:	de b7       	in	r29, 0x3e	; 62
     526:	28 2f       	mov	r18, r24
     528:	39 2f       	mov	r19, r25

0000052a <.Loc.18>:
    static float helftPadBreedte = HALF_PAD;
    static float percentageAfwijking = 0;
    if (helftPadBreedte < temp)  percentageAfwijking = 0;
     52a:	20 31       	cpi	r18, 0x10	; 16
     52c:	31 05       	cpc	r19, r1
     52e:	0c f0       	brlt	.+2      	; 0x532 <.Loc.22>

00000530 <L0^A>:
     530:	41 c0       	rjmp	.+130    	; 0x5b4 <.L6>

00000532 <.Loc.22>:
     532:	c9 01       	movw	r24, r18
     534:	33 0f       	add	r19, r19
     536:	aa 0b       	sbc	r26, r26
     538:	bb 0b       	sbc	r27, r27

0000053a <.Loc.24>:
     53a:	89 83       	std	Y+1, r24	; 0x01
     53c:	9a 83       	std	Y+2, r25	; 0x02
     53e:	ab 83       	std	Y+3, r26	; 0x03
     540:	bc 83       	std	Y+4, r27	; 0x04
     542:	bc 01       	movw	r22, r24
     544:	cd 01       	movw	r24, r26
     546:	0e 94 13 08 	call	0x1026	; 0x1026 <__floatsisf>

0000054a <.LVL9>:
    else percentageAfwijking = (helftPadBreedte - temp)/helftPadBreedte;
     54a:	26 2f       	mov	r18, r22
     54c:	37 2f       	mov	r19, r23
     54e:	48 2f       	mov	r20, r24
     550:	59 2f       	mov	r21, r25
     552:	60 e0       	ldi	r22, 0x00	; 0
     554:	70 e0       	ldi	r23, 0x00	; 0
     556:	80 e7       	ldi	r24, 0x70	; 112
     558:	91 e4       	ldi	r25, 0x41	; 65
     55a:	0e 94 fc 06 	call	0xdf8	; 0xdf8 <__subsf3>

0000055e <.LVL10>:
     55e:	20 e0       	ldi	r18, 0x00	; 0
     560:	30 e0       	ldi	r19, 0x00	; 0
     562:	40 e7       	ldi	r20, 0x70	; 112
     564:	51 e4       	ldi	r21, 0x41	; 65
     566:	69 83       	std	Y+1, r22	; 0x01
     568:	7a 83       	std	Y+2, r23	; 0x02
     56a:	8b 83       	std	Y+3, r24	; 0x03
     56c:	9c 83       	std	Y+4, r25	; 0x04
     56e:	69 81       	ldd	r22, Y+1	; 0x01
     570:	7a 81       	ldd	r23, Y+2	; 0x02
     572:	8b 81       	ldd	r24, Y+3	; 0x03
     574:	9c 81       	ldd	r25, Y+4	; 0x04
     576:	0e 94 69 07 	call	0xed2	; 0xed2 <__divsf3>

0000057a <.LVL11>:
     57a:	36 2f       	mov	r19, r22
     57c:	27 2f       	mov	r18, r23

0000057e <.L5>:
    if (helftPadBreedte < temp)  percentageAfwijking = 0;
     57e:	43 2f       	mov	r20, r19
     580:	52 2f       	mov	r21, r18
     582:	68 2f       	mov	r22, r24
     584:	79 2f       	mov	r23, r25
     586:	40 93 14 02 	sts	0x0214, r20	; 0x800214 <percentageAfwijking.8>
     58a:	50 93 15 02 	sts	0x0215, r21	; 0x800215 <percentageAfwijking.8+0x1>
     58e:	60 93 16 02 	sts	0x0216, r22	; 0x800216 <percentageAfwijking.8+0x2>
     592:	70 93 17 02 	sts	0x0217, r23	; 0x800217 <percentageAfwijking.8+0x3>

00000596 <.Loc.28>:
    return percentageAfwijking;
}
     596:	39 83       	std	Y+1, r19	; 0x01
     598:	2a 83       	std	Y+2, r18	; 0x02
     59a:	8b 83       	std	Y+3, r24	; 0x03
     59c:	9c 83       	std	Y+4, r25	; 0x04
     59e:	69 81       	ldd	r22, Y+1	; 0x01
     5a0:	7a 81       	ldd	r23, Y+2	; 0x02
     5a2:	8b 81       	ldd	r24, Y+3	; 0x03
     5a4:	9c 81       	ldd	r25, Y+4	; 0x04
     5a6:	0f 90       	pop	r0
     5a8:	0f 90       	pop	r0
     5aa:	0f 90       	pop	r0
     5ac:	0f 90       	pop	r0
     5ae:	df 91       	pop	r29
     5b0:	cf 91       	pop	r28
     5b2:	08 95       	ret

000005b4 <.L6>:
     5b4:	30 e0       	ldi	r19, 0x00	; 0
     5b6:	20 e0       	ldi	r18, 0x00	; 0
     5b8:	80 e0       	ldi	r24, 0x00	; 0

000005ba <.Loc.31>:
     5ba:	90 e0       	ldi	r25, 0x00	; 0
     5bc:	e0 cf       	rjmp	.-64     	; 0x57e <.L5>

000005be <padNavigerenNorm>:

void padNavigerenNorm(void)
{
     5be:	cf 93       	push	r28
     5c0:	df 93       	push	r29
     5c2:	00 d0       	rcall	.+0      	; 0x5c4 <L0^A>

000005c4 <L0^A>:
     5c4:	0f 92       	push	r0
     5c6:	cd b7       	in	r28, 0x3d	; 61
     5c8:	de b7       	in	r29, 0x3e	; 62

000005ca <.Loc.33>:
    static unsigned int diffAfstand = 0;
    static unsigned int afstand_L = 0;
    static unsigned int afstand_R = 0;
    int rfid_module_teller = 0;
    //lijnInterrupt(RESET);
    motor_config(VOORUIT, LINKS);
     5ca:	61 e0       	ldi	r22, 0x01	; 1
     5cc:	70 e0       	ldi	r23, 0x00	; 0
     5ce:	80 e0       	ldi	r24, 0x00	; 0
     5d0:	90 e0       	ldi	r25, 0x00	; 0
     5d2:	0e 94 eb 01 	call	0x3d6	; 0x3d6 <motor_config>

000005d6 <.LVL15>:
    motor_config(VOORUIT, RECHTS);
     5d6:	60 e0       	ldi	r22, 0x00	; 0
     5d8:	70 e0       	ldi	r23, 0x00	; 0
     5da:	80 e0       	ldi	r24, 0x00	; 0
     5dc:	90 e0       	ldi	r25, 0x00	; 0
     5de:	0e 94 eb 01 	call	0x3d6	; 0x3d6 <motor_config>

000005e2 <.LVL16>:

    motor_L(1.0);
     5e2:	60 e0       	ldi	r22, 0x00	; 0
     5e4:	70 e0       	ldi	r23, 0x00	; 0
     5e6:	80 e8       	ldi	r24, 0x80	; 128
     5e8:	9f e3       	ldi	r25, 0x3F	; 63
     5ea:	0e 94 bb 01 	call	0x376	; 0x376 <motor_L>

000005ee <.LVL17>:
    motor_R(1.0);
     5ee:	60 e0       	ldi	r22, 0x00	; 0
     5f0:	70 e0       	ldi	r23, 0x00	; 0
     5f2:	80 e8       	ldi	r24, 0x80	; 128
     5f4:	9f e3       	ldi	r25, 0x3F	; 63
     5f6:	0e 94 8b 01 	call	0x316	; 0x316 <motor_R>

000005fa <.LVL18>:
    int wandenWeg = 0;
     5fa:	1a 82       	std	Y+2, r1	; 0x02
     5fc:	19 82       	std	Y+1, r1	; 0x01
     5fe:	08 c0       	rjmp	.+16     	; 0x610 <.L15>

00000600 <.L8>:
        afstand_L = ultrasoonAfstand_L_VOOR();
        afstand_R = ultrasoonAfstand_R_VOOR();

        ///print_waarde(afstandL);   ///TEST

        if ((ultrasoonAfstand_R_VOOR() > VERWEG) || (ultrasoonAfstand_L_VOOR() > VERWEG)) wandenWeg++;
     600:	89 81       	ldd	r24, Y+1	; 0x01
     602:	9a 81       	ldd	r25, Y+2	; 0x02
     604:	01 96       	adiw	r24, 0x01	; 1
     606:	9a 83       	std	Y+2, r25	; 0x02
     608:	89 83       	std	Y+1, r24	; 0x01

0000060a <.Loc.47>:
    while (wandenWeg < 2 /*&& lijnInterrupt(READ)*/){
     60a:	02 97       	sbiw	r24, 0x02	; 2
     60c:	0c f0       	brlt	.+2      	; 0x610 <.L15>

0000060e <L0^A>:
     60e:	67 c0       	rjmp	.+206    	; 0x6de <.L18>

00000610 <.L15>:
        afstand_L = ultrasoonAfstand_L_VOOR();
     610:	0e 94 d6 05 	call	0xbac	; 0xbac <ultrasoonAfstand_L_VOOR>

00000614 <.LVL22>:
     614:	90 93 13 02 	sts	0x0213, r25	; 0x800213 <afstand_L.7+0x1>
     618:	80 93 12 02 	sts	0x0212, r24	; 0x800212 <afstand_L.7>

0000061c <.Loc.51>:
        afstand_R = ultrasoonAfstand_R_VOOR();
     61c:	0e 94 74 05 	call	0xae8	; 0xae8 <ultrasoonAfstand_R_VOOR>

00000620 <.LVL23>:
     620:	90 93 11 02 	sts	0x0211, r25	; 0x800211 <afstand_R.6+0x1>
     624:	80 93 10 02 	sts	0x0210, r24	; 0x800210 <afstand_R.6>

00000628 <.Loc.54>:
        if ((ultrasoonAfstand_R_VOOR() > VERWEG) || (ultrasoonAfstand_L_VOOR() > VERWEG)) wandenWeg++;
     628:	0e 94 74 05 	call	0xae8	; 0xae8 <ultrasoonAfstand_R_VOOR>

0000062c <.LVL24>:
     62c:	4f 97       	sbiw	r24, 0x1f	; 31
     62e:	40 f7       	brcc	.-48     	; 0x600 <.L8>

00000630 <.Loc.57>:
     630:	0e 94 d6 05 	call	0xbac	; 0xbac <ultrasoonAfstand_L_VOOR>

00000634 <.LVL25>:
     634:	4f 97       	sbiw	r24, 0x1f	; 31
     636:	20 f7       	brcc	.-56     	; 0x600 <.L8>

00000638 <.Loc.59>:
        else{
            wandenWeg = 0;
            if (afstand_L > afstand_R){
     638:	20 91 12 02 	lds	r18, 0x0212	; 0x800212 <afstand_L.7>
     63c:	30 91 13 02 	lds	r19, 0x0213	; 0x800213 <afstand_L.7+0x1>
     640:	80 91 10 02 	lds	r24, 0x0210	; 0x800210 <afstand_R.6>
     644:	90 91 11 02 	lds	r25, 0x0211	; 0x800211 <afstand_R.6+0x1>

00000648 <.Loc.62>:
     648:	82 17       	cp	r24, r18
     64a:	93 07       	cpc	r25, r19
     64c:	f0 f0       	brcs	.+60     	; 0x68a <.L19>

0000064e <.Loc.63>:
                diffAfstand = afstand_L - afstand_R;
                motor_L(1.0);
                motor_R(percentageSteering_R(diffAfstand));
            }
            else if (afstand_R > afstand_L){
     64e:	28 17       	cp	r18, r24
     650:	39 07       	cpc	r19, r25
     652:	c0 f5       	brcc	.+112    	; 0x6c4 <.L14>

00000654 <.Loc.65>:
                diffAfstand = afstand_R - afstand_L;
     654:	82 1b       	sub	r24, r18
     656:	93 0b       	sbc	r25, r19

00000658 <.Loc.67>:
     658:	90 93 0f 02 	sts	0x020F, r25	; 0x80020f <diffAfstand.5+0x1>
     65c:	80 93 0e 02 	sts	0x020E, r24	; 0x80020e <diffAfstand.5>

00000660 <.Loc.68>:
                motor_L(percentageSteering_L(diffAfstand));
     660:	0e 94 8d 02 	call	0x51a	; 0x51a <percentageSteering_L>

00000664 <.LVL27>:
     664:	69 83       	std	Y+1, r22	; 0x01
     666:	7a 83       	std	Y+2, r23	; 0x02
     668:	8b 83       	std	Y+3, r24	; 0x03
     66a:	9c 83       	std	Y+4, r25	; 0x04
     66c:	69 81       	ldd	r22, Y+1	; 0x01
     66e:	7a 81       	ldd	r23, Y+2	; 0x02
     670:	8b 81       	ldd	r24, Y+3	; 0x03
     672:	9c 81       	ldd	r25, Y+4	; 0x04
     674:	0e 94 bb 01 	call	0x376	; 0x376 <motor_L>

00000678 <.LVL28>:
                motor_R(1.0);
     678:	60 e0       	ldi	r22, 0x00	; 0
     67a:	70 e0       	ldi	r23, 0x00	; 0
     67c:	80 e8       	ldi	r24, 0x80	; 128
     67e:	9f e3       	ldi	r25, 0x3F	; 63
     680:	0e 94 8b 01 	call	0x316	; 0x316 <motor_R>

00000684 <.L13>:
    int wandenWeg = 0;
     684:	1a 82       	std	Y+2, r1	; 0x02
     686:	19 82       	std	Y+1, r1	; 0x01

00000688 <.Loc.72>:
     688:	c3 cf       	rjmp	.-122    	; 0x610 <.L15>

0000068a <.L19>:
                diffAfstand = afstand_L - afstand_R;
     68a:	28 1b       	sub	r18, r24
     68c:	39 0b       	sbc	r19, r25

0000068e <.Loc.75>:
     68e:	30 93 0f 02 	sts	0x020F, r19	; 0x80020f <diffAfstand.5+0x1>
     692:	20 93 0e 02 	sts	0x020E, r18	; 0x80020e <diffAfstand.5>

00000696 <.Loc.76>:
                motor_L(1.0);
     696:	60 e0       	ldi	r22, 0x00	; 0
     698:	70 e0       	ldi	r23, 0x00	; 0
     69a:	80 e8       	ldi	r24, 0x80	; 128
     69c:	9f e3       	ldi	r25, 0x3F	; 63
     69e:	0e 94 bb 01 	call	0x376	; 0x376 <motor_L>

000006a2 <.LVL32>:
                motor_R(percentageSteering_R(diffAfstand));
     6a2:	80 91 0e 02 	lds	r24, 0x020E	; 0x80020e <diffAfstand.5>
     6a6:	90 91 0f 02 	lds	r25, 0x020F	; 0x80020f <diffAfstand.5+0x1>
     6aa:	0e 94 3b 02 	call	0x476	; 0x476 <percentageSteering_R>

000006ae <.LVL33>:
     6ae:	69 83       	std	Y+1, r22	; 0x01
     6b0:	7a 83       	std	Y+2, r23	; 0x02
     6b2:	8b 83       	std	Y+3, r24	; 0x03
     6b4:	9c 83       	std	Y+4, r25	; 0x04
     6b6:	69 81       	ldd	r22, Y+1	; 0x01
     6b8:	7a 81       	ldd	r23, Y+2	; 0x02
     6ba:	8b 81       	ldd	r24, Y+3	; 0x03
     6bc:	9c 81       	ldd	r25, Y+4	; 0x04
     6be:	0e 94 8b 01 	call	0x316	; 0x316 <motor_R>

000006c2 <.LVL34>:
     6c2:	e0 cf       	rjmp	.-64     	; 0x684 <.L13>

000006c4 <.L14>:
            }
            else{
                motor_R(1.0);
     6c4:	60 e0       	ldi	r22, 0x00	; 0
     6c6:	70 e0       	ldi	r23, 0x00	; 0
     6c8:	80 e8       	ldi	r24, 0x80	; 128
     6ca:	9f e3       	ldi	r25, 0x3F	; 63
     6cc:	0e 94 8b 01 	call	0x316	; 0x316 <motor_R>

000006d0 <.LVL35>:
                motor_L(1.0);
     6d0:	60 e0       	ldi	r22, 0x00	; 0
     6d2:	70 e0       	ldi	r23, 0x00	; 0
     6d4:	80 e8       	ldi	r24, 0x80	; 128
     6d6:	9f e3       	ldi	r25, 0x3F	; 63
     6d8:	0e 94 bb 01 	call	0x376	; 0x376 <motor_L>

000006dc <.LVL36>:
     6dc:	d3 cf       	rjmp	.-90     	; 0x684 <.L13>

000006de <.L18>:
            }
        }
    }
    motor_R(1.0);
     6de:	60 e0       	ldi	r22, 0x00	; 0
     6e0:	70 e0       	ldi	r23, 0x00	; 0
     6e2:	80 e8       	ldi	r24, 0x80	; 128
     6e4:	9f e3       	ldi	r25, 0x3F	; 63
     6e6:	0e 94 8b 01 	call	0x316	; 0x316 <motor_R>

000006ea <.LVL38>:
    motor_L(1.0);
     6ea:	60 e0       	ldi	r22, 0x00	; 0
     6ec:	70 e0       	ldi	r23, 0x00	; 0
     6ee:	80 e8       	ldi	r24, 0x80	; 128
     6f0:	9f e3       	ldi	r25, 0x3F	; 63
     6f2:	0e 94 bb 01 	call	0x376	; 0x376 <motor_L>

000006f6 <.LVL39>:
}
     6f6:	0f 90       	pop	r0
     6f8:	0f 90       	pop	r0
     6fa:	0f 90       	pop	r0
     6fc:	0f 90       	pop	r0
     6fe:	df 91       	pop	r29
     700:	cf 91       	pop	r28
     702:	08 95       	ret

00000704 <lijnInterrupt>:

int lijnInterrupt(int action){ /// TEMP ///
     704:	28 2f       	mov	r18, r24
     706:	39 2f       	mov	r19, r25

00000708 <.Loc.85>:
    static int lijnDetecteerd = FALSE;
    if(action == WRITE){lijnDetecteerd = TRUE;}
     708:	21 30       	cpi	r18, 0x01	; 1
     70a:	31 05       	cpc	r19, r1
     70c:	41 f0       	breq	.+16     	; 0x71e <.L23>

0000070e <.Loc.88>:
    else if (action == RESET){lijnDetecteerd = FALSE;}
     70e:	22 30       	cpi	r18, 0x02	; 2
     710:	31 05       	cpc	r19, r1
     712:	61 f0       	breq	.+24     	; 0x72c <.L24>

00000714 <.L22>:
    return lijnDetecteerd;
}
     714:	80 91 0c 02 	lds	r24, 0x020C	; 0x80020c <lijnDetecteerd.4>
     718:	90 91 0d 02 	lds	r25, 0x020D	; 0x80020d <lijnDetecteerd.4+0x1>
     71c:	08 95       	ret

0000071e <.L23>:
    if(action == WRITE){lijnDetecteerd = TRUE;}
     71e:	81 e0       	ldi	r24, 0x01	; 1
     720:	90 e0       	ldi	r25, 0x00	; 0

00000722 <.Loc.94>:
     722:	90 93 0d 02 	sts	0x020D, r25	; 0x80020d <lijnDetecteerd.4+0x1>
     726:	80 93 0c 02 	sts	0x020C, r24	; 0x80020c <lijnDetecteerd.4>
     72a:	f4 cf       	rjmp	.-24     	; 0x714 <.L22>

0000072c <.L24>:
    else if (action == RESET){lijnDetecteerd = FALSE;}
     72c:	10 92 0d 02 	sts	0x020D, r1	; 0x80020d <lijnDetecteerd.4+0x1>
     730:	10 92 0c 02 	sts	0x020C, r1	; 0x80020c <lijnDetecteerd.4>
     734:	ef cf       	rjmp	.-34     	; 0x714 <.L22>

00000736 <padNavigerenKant>:


void padNavigerenKant(int kant, int richting){
     736:	ef 92       	push	r14
     738:	ff 92       	push	r15
     73a:	0f 93       	push	r16
     73c:	1f 93       	push	r17
     73e:	cf 93       	push	r28
     740:	df 93       	push	r29
     742:	00 d0       	rcall	.+0      	; 0x744 <L0^A>

00000744 <L0^A>:
     744:	00 d0       	rcall	.+0      	; 0x746 <L0^A>

00000746 <L0^A>:
     746:	cd b7       	in	r28, 0x3d	; 61
     748:	de b7       	in	r29, 0x3e	; 62
     74a:	08 2f       	mov	r16, r24
     74c:	19 2f       	mov	r17, r25
     74e:	6d 83       	std	Y+5, r22	; 0x05
     750:	79 83       	std	Y+1, r23	; 0x01

00000752 <.Loc.100>:
    static unsigned int afstandVoor = 0; // L
    static unsigned int afstandAchter = 0; // R
    static int bijGat = FALSE;
    int bezig = TRUE;

    motor_config(richting, LINKS);
     752:	61 e0       	ldi	r22, 0x01	; 1
     754:	70 e0       	ldi	r23, 0x00	; 0

00000756 <.Loc.105>:
     756:	8d 81       	ldd	r24, Y+5	; 0x05

00000758 <.Loc.106>:
     758:	99 81       	ldd	r25, Y+1	; 0x01
     75a:	0e 94 eb 01 	call	0x3d6	; 0x3d6 <motor_config>

0000075e <.LVL49>:
    motor_config(richting, RECHTS);
     75e:	60 e0       	ldi	r22, 0x00	; 0
     760:	70 e0       	ldi	r23, 0x00	; 0
     762:	8d 81       	ldd	r24, Y+5	; 0x05
     764:	99 81       	ldd	r25, Y+1	; 0x01
     766:	0e 94 eb 01 	call	0x3d6	; 0x3d6 <motor_config>

0000076a <.LVL50>:

    motor_L(1.0);
     76a:	60 e0       	ldi	r22, 0x00	; 0
     76c:	70 e0       	ldi	r23, 0x00	; 0
     76e:	80 e8       	ldi	r24, 0x80	; 128
     770:	9f e3       	ldi	r25, 0x3F	; 63
     772:	0e 94 bb 01 	call	0x376	; 0x376 <motor_L>

00000776 <.LVL51>:
    motor_R(1.0);
     776:	60 e0       	ldi	r22, 0x00	; 0
     778:	70 e0       	ldi	r23, 0x00	; 0
     77a:	80 e8       	ldi	r24, 0x80	; 128
     77c:	9f e3       	ldi	r25, 0x3F	; 63
     77e:	0e 94 8b 01 	call	0x316	; 0x316 <motor_R>

00000782 <.LVL52>:

    while (bezig){
     782:	ee 24       	eor	r14, r14
     784:	e3 94       	inc	r14
     786:	f1 2c       	mov	r15, r1
     788:	9e c0       	rjmp	.+316    	; 0x8c6 <.L33>

0000078a <.L41>:
        if(kant == RECHTS){
            afstandVoor = ultrasoonAfstand_L_VOOR();
     78a:	0e 94 d6 05 	call	0xbac	; 0xbac <ultrasoonAfstand_L_VOOR>

0000078e <.LVL53>:
     78e:	90 93 0b 02 	sts	0x020B, r25	; 0x80020b <afstandVoor.3+0x1>
     792:	80 93 0a 02 	sts	0x020A, r24	; 0x80020a <afstandVoor.3>

00000796 <.Loc.115>:
            afstandAchter = ultrasoonAfstand_L_ACHTER();
     796:	0e 94 9a 06 	call	0xd34	; 0xd34 <ultrasoonAfstand_L_ACHTER>

0000079a <.LVL54>:
     79a:	90 93 09 02 	sts	0x0209, r25	; 0x800209 <afstandAchter.2+0x1>
     79e:	80 93 08 02 	sts	0x0208, r24	; 0x800208 <afstandAchter.2>

000007a2 <.Loc.118>:
            int afstandRechts = ultrasoonAfstand_R_VOOR();
     7a2:	0e 94 74 05 	call	0xae8	; 0xae8 <ultrasoonAfstand_R_VOOR>

000007a6 <.LVL55>:
     7a6:	28 2f       	mov	r18, r24
     7a8:	39 2f       	mov	r19, r25

000007aa <.Loc.120>:
            if (bijGat == FALSE && afstandRechts > VERWEG){bijGat = TRUE;}
     7aa:	80 91 06 02 	lds	r24, 0x0206	; 0x800206 <bijGat.1>
     7ae:	90 91 07 02 	lds	r25, 0x0207	; 0x800207 <bijGat.1+0x1>
     7b2:	9e 83       	std	Y+6, r25	; 0x06
     7b4:	8d 83       	std	Y+5, r24	; 0x05

000007b6 <.Loc.122>:
     7b6:	89 2b       	or	r24, r25
     7b8:	69 f4       	brne	.+26     	; 0x7d4 <.L27>

000007ba <.Loc.123>:
     7ba:	2f 31       	cpi	r18, 0x1F	; 31
     7bc:	31 05       	cpc	r19, r1
     7be:	0c f4       	brge	.+2      	; 0x7c2 <.Loc.124>

000007c0 <L0^A>:
     7c0:	45 c0       	rjmp	.+138    	; 0x84c <.L34>

000007c2 <.Loc.124>:
     7c2:	81 e0       	ldi	r24, 0x01	; 1
     7c4:	90 e0       	ldi	r25, 0x00	; 0
     7c6:	90 93 07 02 	sts	0x0207, r25	; 0x800207 <bijGat.1+0x1>
     7ca:	80 93 06 02 	sts	0x0206, r24	; 0x800206 <bijGat.1>
     7ce:	9e 83       	std	Y+6, r25	; 0x06
     7d0:	8d 83       	std	Y+5, r24	; 0x05
     7d2:	83 c0       	rjmp	.+262    	; 0x8da <.L28>

000007d4 <.L27>:
            else if(bijGat == TRUE && afstandRechts < VERWEG){
     7d4:	8d 81       	ldd	r24, Y+5	; 0x05
     7d6:	9e 81       	ldd	r25, Y+6	; 0x06
     7d8:	01 97       	sbiw	r24, 0x01	; 1
     7da:	e9 f5       	brne	.+122    	; 0x856 <.L35>

000007dc <.Loc.128>:
     7dc:	2e 31       	cpi	r18, 0x1E	; 30
     7de:	31 05       	cpc	r19, r1
     7e0:	0c f0       	brlt	.+2      	; 0x7e4 <.Loc.129>

000007e2 <L0^A>:
     7e2:	7b c0       	rjmp	.+246    	; 0x8da <.L28>

000007e4 <.Loc.129>:
                EIMSK |= (1 << INT4);
     7e4:	ec 9a       	sbi	0x1d, 4	; 29

000007e6 <.Loc.131>:
                bezig = FALSE;
     7e6:	1e 83       	std	Y+6, r17	; 0x06
     7e8:	0d 83       	std	Y+5, r16	; 0x05
     7ea:	77 c0       	rjmp	.+238    	; 0x8da <.L28>

000007ec <.L42>:
            }

        }
        else if(kant == LINKS){
            afstandVoor = ultrasoonAfstand_R_VOOR();
     7ec:	0e 94 74 05 	call	0xae8	; 0xae8 <ultrasoonAfstand_R_VOOR>

000007f0 <.LVL59>:
     7f0:	90 93 0b 02 	sts	0x020B, r25	; 0x80020b <afstandVoor.3+0x1>
     7f4:	80 93 0a 02 	sts	0x020A, r24	; 0x80020a <afstandVoor.3>

000007f8 <.Loc.137>:
            afstandAchter = ultrasoonAfstand_R_ACHTER();
     7f8:	0e 94 38 06 	call	0xc70	; 0xc70 <ultrasoonAfstand_R_ACHTER>

000007fc <.LVL60>:
     7fc:	90 93 09 02 	sts	0x0209, r25	; 0x800209 <afstandAchter.2+0x1>
     800:	80 93 08 02 	sts	0x0208, r24	; 0x800208 <afstandAchter.2>

00000804 <.Loc.140>:
            int afstandLinks = ultrasoonAfstand_L_VOOR();
     804:	0e 94 d6 05 	call	0xbac	; 0xbac <ultrasoonAfstand_L_VOOR>

00000808 <.LVL61>:
     808:	28 2f       	mov	r18, r24
     80a:	39 2f       	mov	r19, r25

0000080c <.Loc.142>:
            if (bijGat == FALSE && afstandLinks > VERWEG){bijGat = TRUE;}
     80c:	80 91 06 02 	lds	r24, 0x0206	; 0x800206 <bijGat.1>
     810:	90 91 07 02 	lds	r25, 0x0207	; 0x800207 <bijGat.1+0x1>
     814:	9e 83       	std	Y+6, r25	; 0x06
     816:	8d 83       	std	Y+5, r24	; 0x05

00000818 <.Loc.144>:
     818:	89 2b       	or	r24, r25
     81a:	61 f4       	brne	.+24     	; 0x834 <.L29>

0000081c <.Loc.145>:
     81c:	2f 31       	cpi	r18, 0x1F	; 31
     81e:	31 05       	cpc	r19, r1
     820:	fc f0       	brlt	.+62     	; 0x860 <.L37>

00000822 <.Loc.146>:
     822:	81 e0       	ldi	r24, 0x01	; 1
     824:	90 e0       	ldi	r25, 0x00	; 0
     826:	90 93 07 02 	sts	0x0207, r25	; 0x800207 <bijGat.1+0x1>
     82a:	80 93 06 02 	sts	0x0206, r24	; 0x800206 <bijGat.1>
     82e:	1e 83       	std	Y+6, r17	; 0x06
     830:	0d 83       	std	Y+5, r16	; 0x05
     832:	53 c0       	rjmp	.+166    	; 0x8da <.L28>

00000834 <.L29>:
            else if(bijGat == TRUE && afstandLinks < VERWEG){
     834:	8d 81       	ldd	r24, Y+5	; 0x05
     836:	9e 81       	ldd	r25, Y+6	; 0x06
     838:	01 97       	sbiw	r24, 0x01	; 1
     83a:	a9 f4       	brne	.+42     	; 0x866 <.L38>

0000083c <.Loc.150>:
     83c:	2e 31       	cpi	r18, 0x1E	; 30
     83e:	31 05       	cpc	r19, r1
     840:	0c f0       	brlt	.+2      	; 0x844 <.Loc.151>

00000842 <L0^A>:
     842:	4b c0       	rjmp	.+150    	; 0x8da <.L28>

00000844 <.Loc.151>:
                EIMSK |= (1 << INT4);
     844:	ec 9a       	sbi	0x1d, 4	; 29

00000846 <.Loc.153>:
                bezig = FALSE;
     846:	1e 82       	std	Y+6, r1	; 0x06
     848:	1d 82       	std	Y+5, r1	; 0x05
     84a:	47 c0       	rjmp	.+142    	; 0x8da <.L28>

0000084c <.L34>:
     84c:	81 e0       	ldi	r24, 0x01	; 1
     84e:	90 e0       	ldi	r25, 0x00	; 0
     850:	9e 83       	std	Y+6, r25	; 0x06
     852:	8d 83       	std	Y+5, r24	; 0x05
     854:	42 c0       	rjmp	.+132    	; 0x8da <.L28>

00000856 <.L35>:
     856:	81 e0       	ldi	r24, 0x01	; 1
     858:	90 e0       	ldi	r25, 0x00	; 0
     85a:	9e 83       	std	Y+6, r25	; 0x06
     85c:	8d 83       	std	Y+5, r24	; 0x05
     85e:	3d c0       	rjmp	.+122    	; 0x8da <.L28>

00000860 <.L37>:
     860:	1e 83       	std	Y+6, r17	; 0x06
     862:	0d 83       	std	Y+5, r16	; 0x05
     864:	3a c0       	rjmp	.+116    	; 0x8da <.L28>

00000866 <.L38>:
     866:	1e 83       	std	Y+6, r17	; 0x06
     868:	0d 83       	std	Y+5, r16	; 0x05
     86a:	37 c0       	rjmp	.+110    	; 0x8da <.L28>

0000086c <.L43>:
            }
        }

        if (afstandVoor > afstandAchter){
            diffAfstand = afstandVoor - afstandAchter;
     86c:	28 1b       	sub	r18, r24
     86e:	39 0b       	sbc	r19, r25

00000870 <.Loc.160>:
     870:	30 93 05 02 	sts	0x0205, r19	; 0x800205 <diffAfstand.0+0x1>
     874:	20 93 04 02 	sts	0x0204, r18	; 0x800204 <diffAfstand.0>

00000878 <.Loc.161>:
            motor_L(1.0);
     878:	60 e0       	ldi	r22, 0x00	; 0
     87a:	70 e0       	ldi	r23, 0x00	; 0
     87c:	80 e8       	ldi	r24, 0x80	; 128
     87e:	9f e3       	ldi	r25, 0x3F	; 63
     880:	0e 94 bb 01 	call	0x376	; 0x376 <motor_L>

00000884 <.LVL67>:
            motor_R(percentageSteering_R(diffAfstand));
     884:	80 91 04 02 	lds	r24, 0x0204	; 0x800204 <diffAfstand.0>
     888:	90 91 05 02 	lds	r25, 0x0205	; 0x800205 <diffAfstand.0+0x1>
     88c:	0e 94 3b 02 	call	0x476	; 0x476 <percentageSteering_R>

00000890 <.LVL68>:
     890:	69 83       	std	Y+1, r22	; 0x01
     892:	7a 83       	std	Y+2, r23	; 0x02
     894:	8b 83       	std	Y+3, r24	; 0x03
     896:	9c 83       	std	Y+4, r25	; 0x04
     898:	69 81       	ldd	r22, Y+1	; 0x01
     89a:	7a 81       	ldd	r23, Y+2	; 0x02
     89c:	8b 81       	ldd	r24, Y+3	; 0x03
     89e:	9c 81       	ldd	r25, Y+4	; 0x04
     8a0:	0e 94 8b 01 	call	0x316	; 0x316 <motor_R>

000008a4 <.LVL69>:
     8a4:	0c c0       	rjmp	.+24     	; 0x8be <.L31>

000008a6 <.L32>:
            diffAfstand = afstandAchter - afstandVoor;
            motor_L(percentageSteering_L(diffAfstand));
            motor_R(1.0);
        }
        else{
            motor_R(1.0);
     8a6:	60 e0       	ldi	r22, 0x00	; 0
     8a8:	70 e0       	ldi	r23, 0x00	; 0
     8aa:	80 e8       	ldi	r24, 0x80	; 128
     8ac:	9f e3       	ldi	r25, 0x3F	; 63
     8ae:	0e 94 8b 01 	call	0x316	; 0x316 <motor_R>

000008b2 <.LVL70>:
            motor_L(1.0);
     8b2:	60 e0       	ldi	r22, 0x00	; 0
     8b4:	70 e0       	ldi	r23, 0x00	; 0
     8b6:	80 e8       	ldi	r24, 0x80	; 128
     8b8:	9f e3       	ldi	r25, 0x3F	; 63
     8ba:	0e 94 bb 01 	call	0x376	; 0x376 <motor_L>

000008be <.L31>:
    while (bezig){
     8be:	8d 81       	ldd	r24, Y+5	; 0x05
     8c0:	9e 81       	ldd	r25, Y+6	; 0x06
     8c2:	89 2b       	or	r24, r25
     8c4:	91 f1       	breq	.+100    	; 0x92a <.L40>

000008c6 <.L33>:
        if(kant == RECHTS){
     8c6:	01 15       	cp	r16, r1
     8c8:	11 05       	cpc	r17, r1
     8ca:	09 f4       	brne	.+2      	; 0x8ce <.Loc.168>

000008cc <L0^A>:
     8cc:	5e cf       	rjmp	.-324    	; 0x78a <.L41>

000008ce <.Loc.168>:
        else if(kant == LINKS){
     8ce:	01 30       	cpi	r16, 0x01	; 1
     8d0:	11 05       	cpc	r17, r1
     8d2:	09 f4       	brne	.+2      	; 0x8d6 <L0^A+0x2>

000008d4 <L0^A>:
     8d4:	8b cf       	rjmp	.-234    	; 0x7ec <.L42>
     8d6:	ed 82       	std	Y+5, r14	; 0x05
     8d8:	fe 82       	std	Y+6, r15	; 0x06

000008da <.L28>:
        if (afstandVoor > afstandAchter){
     8da:	20 91 0a 02 	lds	r18, 0x020A	; 0x80020a <afstandVoor.3>
     8de:	30 91 0b 02 	lds	r19, 0x020B	; 0x80020b <afstandVoor.3+0x1>
     8e2:	80 91 08 02 	lds	r24, 0x0208	; 0x800208 <afstandAchter.2>
     8e6:	90 91 09 02 	lds	r25, 0x0209	; 0x800209 <afstandAchter.2+0x1>

000008ea <.Loc.173>:
     8ea:	82 17       	cp	r24, r18
     8ec:	93 07       	cpc	r25, r19
     8ee:	08 f4       	brcc	.+2      	; 0x8f2 <.Loc.174>

000008f0 <L0^A>:
     8f0:	bd cf       	rjmp	.-134    	; 0x86c <.L43>

000008f2 <.Loc.174>:
        else if (afstandAchter > afstandVoor){
     8f2:	28 17       	cp	r18, r24
     8f4:	39 07       	cpc	r19, r25
     8f6:	b8 f6       	brcc	.-82     	; 0x8a6 <.L32>

000008f8 <.Loc.176>:
            diffAfstand = afstandAchter - afstandVoor;
     8f8:	82 1b       	sub	r24, r18
     8fa:	93 0b       	sbc	r25, r19

000008fc <.Loc.178>:
     8fc:	90 93 05 02 	sts	0x0205, r25	; 0x800205 <diffAfstand.0+0x1>
     900:	80 93 04 02 	sts	0x0204, r24	; 0x800204 <diffAfstand.0>

00000904 <.Loc.179>:
            motor_L(percentageSteering_L(diffAfstand));
     904:	0e 94 8d 02 	call	0x51a	; 0x51a <percentageSteering_L>

00000908 <.LVL74>:
     908:	69 83       	std	Y+1, r22	; 0x01
     90a:	7a 83       	std	Y+2, r23	; 0x02
     90c:	8b 83       	std	Y+3, r24	; 0x03
     90e:	9c 83       	std	Y+4, r25	; 0x04
     910:	69 81       	ldd	r22, Y+1	; 0x01
     912:	7a 81       	ldd	r23, Y+2	; 0x02
     914:	8b 81       	ldd	r24, Y+3	; 0x03
     916:	9c 81       	ldd	r25, Y+4	; 0x04
     918:	0e 94 bb 01 	call	0x376	; 0x376 <motor_L>

0000091c <.LVL75>:
            motor_R(1.0);
     91c:	60 e0       	ldi	r22, 0x00	; 0
     91e:	70 e0       	ldi	r23, 0x00	; 0
     920:	80 e8       	ldi	r24, 0x80	; 128
     922:	9f e3       	ldi	r25, 0x3F	; 63
     924:	0e 94 8b 01 	call	0x316	; 0x316 <motor_R>

00000928 <.LVL76>:
     928:	ca cf       	rjmp	.-108    	; 0x8be <.L31>

0000092a <.L40>:
        }
    }
}
     92a:	0f 90       	pop	r0
     92c:	0f 90       	pop	r0
     92e:	0f 90       	pop	r0
     930:	0f 90       	pop	r0
     932:	0f 90       	pop	r0
     934:	0f 90       	pop	r0
     936:	df 91       	pop	r29
     938:	cf 91       	pop	r28
     93a:	1f 91       	pop	r17
     93c:	0f 91       	pop	r16
     93e:	ff 90       	pop	r15
     940:	ef 90       	pop	r14
     942:	08 95       	ret

00000944 <kerenR>:

void kerenR(void)
{
     944:	af 92       	push	r10
     946:	bf 92       	push	r11
     948:	cf 92       	push	r12
     94a:	df 92       	push	r13
     94c:	ff 92       	push	r15
     94e:	0f 93       	push	r16
     950:	1f 93       	push	r17
     952:	cf 93       	push	r28
     954:	df 93       	push	r29

00000956 <.Loc.183>:
    int teller = 0;
    int count = 0;
    int temp = 0;
    while(temp == 0)
    {
    TCNT2 = 6;
     956:	02 eb       	ldi	r16, 0xB2	; 178
     958:	10 e0       	ldi	r17, 0x00	; 0
     95a:	c6 e0       	ldi	r28, 0x06	; 6

0000095c <.Loc.188>:
    TCCR2A = 0;
     95c:	0f 2e       	mov	r0, r31
     95e:	f0 eb       	ldi	r31, 0xB0	; 176
     960:	af 2e       	mov	r10, r31
     962:	b1 2c       	mov	r11, r1
     964:	f0 2d       	mov	r31, r0

00000966 <.Loc.189>:
    TCCR2B = (0 << CS22)|(1 << CS21) | (1 << CS20);
     966:	0f 2e       	mov	r0, r31
     968:	f1 eb       	ldi	r31, 0xB1	; 177
     96a:	cf 2e       	mov	r12, r31
     96c:	d1 2c       	mov	r13, r1
     96e:	f0 2d       	mov	r31, r0
     970:	0f 2e       	mov	r0, r31
     972:	f3 e0       	ldi	r31, 0x03	; 3
     974:	ff 2e       	mov	r15, r31
     976:	f0 2d       	mov	r31, r0

00000978 <.Loc.190>:
            {
                TIFR2 = (1 << TOV2);
                TCNT2 = 6;
                break;
            }
            TIFR2 = (1 << TOV2);
     978:	d1 e0       	ldi	r29, 0x01	; 1

0000097a <.Loc.191>:
    while(temp == 0)
     97a:	20 c0       	rjmp	.+64     	; 0x9bc <.L45>

0000097c <.L56>:
                TIFR2 = (1 << TOV2);
     97c:	d7 bb       	out	0x17, r29	; 23

0000097e <.Loc.194>:
                TCNT2 = 6;
     97e:	f8 01       	movw	r30, r16
     980:	c0 83       	st	Z, r28

00000982 <.Loc.196>:
            TCNT2 = 6;
        }
    }
    motor_L(1);
     982:	60 e0       	ldi	r22, 0x00	; 0
     984:	70 e0       	ldi	r23, 0x00	; 0
     986:	80 e8       	ldi	r24, 0x80	; 128
     988:	9f e3       	ldi	r25, 0x3F	; 63
     98a:	0e 94 bb 01 	call	0x376	; 0x376 <motor_L>

0000098e <.LVL80>:
    motor_R(1);
     98e:	60 e0       	ldi	r22, 0x00	; 0
     990:	70 e0       	ldi	r23, 0x00	; 0
     992:	80 e8       	ldi	r24, 0x80	; 128
     994:	9f e3       	ldi	r25, 0x3F	; 63
     996:	0e 94 8b 01 	call	0x316	; 0x316 <motor_R>

0000099a <.LVL81>:

    TCNT2 = 6;
     99a:	f8 01       	movw	r30, r16
     99c:	c0 83       	st	Z, r28

0000099e <.Loc.201>:
     99e:	80 e9       	ldi	r24, 0x90	; 144
     9a0:	91 e0       	ldi	r25, 0x01	; 1

000009a2 <.L50>:
    count = 0;
    while (1)
    {
        if (TIFR2 & (1 << TOV2))
     9a2:	b8 9b       	sbis	0x17, 0	; 23
     9a4:	fe cf       	rjmp	.-4      	; 0x9a2 <.L50>

000009a6 <.Loc.206>:
        {
            if (++count >= 400)     ///WP COUNT -> 300
     9a6:	01 97       	sbiw	r24, 0x01	; 1

000009a8 <.Loc.208>:
     9a8:	00 97       	sbiw	r24, 0x00	; 0
     9aa:	21 f0       	breq	.+8      	; 0x9b4 <.L51>

000009ac <.Loc.209>:
            {
                break;
            }
            TIFR2 = (1 << TOV2);
     9ac:	d7 bb       	out	0x17, r29	; 23

000009ae <.Loc.211>:
            TCNT2 = 6;
     9ae:	f8 01       	movw	r30, r16
     9b0:	c0 83       	st	Z, r28
     9b2:	f7 cf       	rjmp	.-18     	; 0x9a2 <.L50>

000009b4 <.L51>:
        }
    }
    teller++;
    if (ultrasoonAfstand_L_VOOR() < 20) {temp = 1;}
     9b4:	0e 94 d6 05 	call	0xbac	; 0xbac <ultrasoonAfstand_L_VOOR>

000009b8 <.LVL87>:
     9b8:	44 97       	sbiw	r24, 0x14	; 20
     9ba:	e0 f0       	brcs	.+56     	; 0x9f4 <.L55>

000009bc <.L45>:
    TCNT2 = 6;
     9bc:	f8 01       	movw	r30, r16
     9be:	c0 83       	st	Z, r28

000009c0 <.Loc.220>:
    TCCR2A = 0;
     9c0:	f5 01       	movw	r30, r10
     9c2:	10 82       	st	Z, r1

000009c4 <.Loc.222>:
    TCCR2B = (0 << CS22)|(1 << CS21) | (1 << CS20);
     9c4:	f6 01       	movw	r30, r12
     9c6:	f0 82       	st	Z, r15

000009c8 <.Loc.224>:
    motor_L(0);
     9c8:	60 e0       	ldi	r22, 0x00	; 0
     9ca:	70 e0       	ldi	r23, 0x00	; 0
     9cc:	cb 01       	movw	r24, r22
     9ce:	0e 94 bb 01 	call	0x376	; 0x376 <motor_L>

000009d2 <.LVL89>:
    motor_R(1);
     9d2:	60 e0       	ldi	r22, 0x00	; 0
     9d4:	70 e0       	ldi	r23, 0x00	; 0
     9d6:	80 e8       	ldi	r24, 0x80	; 128
     9d8:	9f e3       	ldi	r25, 0x3F	; 63
     9da:	0e 94 8b 01 	call	0x316	; 0x316 <motor_R>

000009de <.LVL90>:
     9de:	84 ef       	ldi	r24, 0xF4	; 244
     9e0:	91 e0       	ldi	r25, 0x01	; 1

000009e2 <.L46>:
        if (TIFR2 & (1 << TOV2))
     9e2:	b8 9b       	sbis	0x17, 0	; 23
     9e4:	fe cf       	rjmp	.-4      	; 0x9e2 <.L46>

000009e6 <.Loc.231>:
            if (++count >= 500)
     9e6:	01 97       	sbiw	r24, 0x01	; 1

000009e8 <.Loc.233>:
     9e8:	00 97       	sbiw	r24, 0x00	; 0
     9ea:	41 f2       	breq	.-112    	; 0x97c <.L56>

000009ec <.Loc.234>:
            TIFR2 = (1 << TOV2);
     9ec:	d7 bb       	out	0x17, r29	; 23

000009ee <.Loc.236>:
            TCNT2 = 6;
     9ee:	f8 01       	movw	r30, r16
     9f0:	c0 83       	st	Z, r28
     9f2:	f7 cf       	rjmp	.-18     	; 0x9e2 <.L46>

000009f4 <.L55>:
    //if (ultrasoonAfstand_R() < 20) {temp = 1;}
    }
}
     9f4:	df 91       	pop	r29
     9f6:	cf 91       	pop	r28
     9f8:	1f 91       	pop	r17
     9fa:	0f 91       	pop	r16
     9fc:	ff 90       	pop	r15
     9fe:	df 90       	pop	r13
     a00:	cf 90       	pop	r12
     a02:	bf 90       	pop	r11
     a04:	af 90       	pop	r10
     a06:	08 95       	ret

00000a08 <rfid_module>:
     a08:	91 9b       	sbis	0x12, 1	; 18
     a0a:	fe cf       	rjmp	.-4      	; 0xa08 <rfid_module>

00000a0c <.Loc.3>:
     a0c:	0e 94 95 00 	call	0x12a	; 0x12a <acknowledge_agv>

00000a10 <.LVL0>:
     a10:	40 9a       	sbi	0x08, 0	; 8

00000a12 <.Loc.6>:
     a12:	0e 94 a2 04 	call	0x944	; 0x944 <kerenR>

00000a16 <.LVL1>:
     a16:	08 95       	ret

00000a18 <init_test>:
     a18:	27 9a       	sbi	0x04, 7	; 4

00000a1a <.Loc.3>:
     a1a:	26 9a       	sbi	0x04, 6	; 4

00000a1c <.Loc.5>:
     a1c:	2f 9a       	sbi	0x05, 7	; 5

00000a1e <.Loc.7>:
     a1e:	2e 9a       	sbi	0x05, 6	; 5

00000a20 <.Loc.10>:
     a20:	81 98       	cbi	0x10, 1	; 16

00000a22 <.Loc.11>:
     a22:	82 98       	cbi	0x10, 2	; 16

00000a24 <.Loc.13>:
     a24:	83 98       	cbi	0x10, 3	; 16

00000a26 <.Loc.15>:
     a26:	08 95       	ret

00000a28 <test>:
     a28:	79 9b       	sbis	0x0f, 1	; 15
     a2a:	1a c0       	rjmp	.+52     	; 0xa60 <.L3>

00000a2c <.Loc.20>:
     a2c:	80 91 02 02 	lds	r24, 0x0202	; 0x800202 <released.1>
     a30:	90 91 03 02 	lds	r25, 0x0203	; 0x800203 <released.1+0x1>
     a34:	89 2b       	or	r24, r25
     a36:	a1 f4       	brne	.+40     	; 0xa60 <.L3>

00000a38 <.Loc.21>:
     a38:	2f 9a       	sbi	0x05, 7	; 5

00000a3a <.Loc.23>:
     a3a:	2e 9a       	sbi	0x05, 6	; 5

00000a3c <.LBB8>:
     a3c:	2f ef       	ldi	r18, 0xFF	; 255
     a3e:	86 e7       	ldi	r24, 0x76	; 118
     a40:	91 e0       	ldi	r25, 0x01	; 1

00000a42 <.L1^B1>:
     a42:	21 50       	subi	r18, 0x01	; 1
     a44:	80 40       	sbci	r24, 0x00	; 0
     a46:	90 40       	sbci	r25, 0x00	; 0
     a48:	e1 f7       	brne	.-8      	; 0xa42 <.L1^B1>
     a4a:	00 c0       	rjmp	.+0      	; 0xa4c <L0^A>

00000a4c <L0^A>:
	...

00000a4e <.LBE8>:
     a4e:	81 e0       	ldi	r24, 0x01	; 1
     a50:	90 e0       	ldi	r25, 0x00	; 0
     a52:	90 93 03 02 	sts	0x0203, r25	; 0x800203 <released.1+0x1>
     a56:	80 93 02 02 	sts	0x0202, r24	; 0x800202 <released.1>

00000a5a <.Loc.36>:
     a5a:	79 9b       	sbis	0x0f, 1	; 15
     a5c:	0a c0       	rjmp	.+20     	; 0xa72 <.L4>
     a5e:	08 95       	ret

00000a60 <.L3>:
     a60:	79 99       	sbic	0x0f, 1	; 15
     a62:	06 c0       	rjmp	.+12     	; 0xa70 <.L2>

00000a64 <.Loc.40>:
     a64:	80 91 02 02 	lds	r24, 0x0202	; 0x800202 <released.1>
     a68:	90 91 03 02 	lds	r25, 0x0203	; 0x800203 <released.1+0x1>
     a6c:	01 97       	sbiw	r24, 0x01	; 1
     a6e:	09 f0       	breq	.+2      	; 0xa72 <.L4>

00000a70 <.L2>:
     a70:	08 95       	ret

00000a72 <.L4>:
     a72:	2f 98       	cbi	0x05, 7	; 5

00000a74 <.Loc.44>:
     a74:	2e 98       	cbi	0x05, 6	; 5

00000a76 <.LBB10>:
     a76:	2f ef       	ldi	r18, 0xFF	; 255
     a78:	81 ee       	ldi	r24, 0xE1	; 225
     a7a:	94 e0       	ldi	r25, 0x04	; 4

00000a7c <.L1^B2>:
     a7c:	21 50       	subi	r18, 0x01	; 1
     a7e:	80 40       	sbci	r24, 0x00	; 0
     a80:	90 40       	sbci	r25, 0x00	; 0
     a82:	e1 f7       	brne	.-8      	; 0xa7c <.L1^B2>
     a84:	00 c0       	rjmp	.+0      	; 0xa86 <L0^A>

00000a86 <L0^A>:
	...

00000a88 <.LBE10>:
     a88:	10 92 03 02 	sts	0x0203, r1	; 0x800203 <released.1+0x1>
     a8c:	10 92 02 02 	sts	0x0202, r1	; 0x800202 <released.1>

00000a90 <.Loc.57>:
     a90:	ef cf       	rjmp	.-34     	; 0xa70 <.L2>

00000a92 <test_AGV_ontvang>:
     a92:	91 9b       	sbis	0x12, 1	; 18
     a94:	06 c0       	rjmp	.+12     	; 0xaa2 <.L7>

00000a96 <.Loc.62>:
     a96:	80 91 00 02 	lds	r24, 0x0200	; 0x800200 <test.0>
     a9a:	90 91 01 02 	lds	r25, 0x0201	; 0x800201 <test.0+0x1>
     a9e:	01 97       	sbiw	r24, 0x01	; 1
     aa0:	81 f0       	breq	.+32     	; 0xac2 <.L9>

00000aa2 <.L7>:
     aa2:	91 99       	sbic	0x12, 1	; 18
     aa4:	0d c0       	rjmp	.+26     	; 0xac0 <.L6>

00000aa6 <.Loc.65>:
     aa6:	80 91 00 02 	lds	r24, 0x0200	; 0x800200 <test.0>
     aaa:	90 91 01 02 	lds	r25, 0x0201	; 0x800201 <test.0+0x1>
     aae:	89 2b       	or	r24, r25
     ab0:	39 f4       	brne	.+14     	; 0xac0 <.L6>

00000ab2 <.Loc.66>:
     ab2:	2f 9a       	sbi	0x05, 7	; 5

00000ab4 <.Loc.68>:
     ab4:	81 e0       	ldi	r24, 0x01	; 1
     ab6:	90 e0       	ldi	r25, 0x00	; 0
     ab8:	90 93 01 02 	sts	0x0201, r25	; 0x800201 <test.0+0x1>
     abc:	80 93 00 02 	sts	0x0200, r24	; 0x800200 <test.0>

00000ac0 <.L6>:
     ac0:	08 95       	ret

00000ac2 <.L9>:
     ac2:	2f 98       	cbi	0x05, 7	; 5

00000ac4 <.LBB12>:
     ac4:	2f ef       	ldi	r18, 0xFF	; 255
     ac6:	83 ed       	ldi	r24, 0xD3	; 211
     ac8:	90 e3       	ldi	r25, 0x30	; 48

00000aca <.L1^B3>:
     aca:	21 50       	subi	r18, 0x01	; 1
     acc:	80 40       	sbci	r24, 0x00	; 0
     ace:	90 40       	sbci	r25, 0x00	; 0
     ad0:	e1 f7       	brne	.-8      	; 0xaca <.L1^B3>
     ad2:	00 c0       	rjmp	.+0      	; 0xad4 <L0^A>

00000ad4 <L0^A>:
	...

00000ad6 <.LBE12>:
     ad6:	0e 94 95 00 	call	0x12a	; 0x12a <acknowledge_agv>

00000ada <.LVL6>:
     ada:	10 92 01 02 	sts	0x0201, r1	; 0x800201 <test.0+0x1>
     ade:	10 92 00 02 	sts	0x0200, r1	; 0x800200 <test.0>
     ae2:	08 95       	ret

00000ae4 <test_module_versturen>:
     ae4:	8f b1       	in	r24, 0x0f	; 15

00000ae6 <.Loc.89>:
     ae6:	08 95       	ret

00000ae8 <ultrasoonAfstand_R_VOOR>:
#include "rfid_module_lib.h"
#include "us_sensor_lib.h"


uint16_t ultrasoonAfstand_R_VOOR(void)
{
     ae8:	cf 93       	push	r28
     aea:	df 93       	push	r29
     aec:	00 d0       	rcall	.+0      	; 0xaee <L0^A>

00000aee <L0^A>:
     aee:	0f 92       	push	r0
     af0:	cd b7       	in	r28, 0x3d	; 61
     af2:	de b7       	in	r29, 0x3e	; 62

00000af4 <.Loc.1>:
    // 1. Trigger
    US_TRIG_R_VOOR_PORT &= ~(1 << US_TRIG_R_VOOR);
     af4:	46 98       	cbi	0x08, 6	; 8

00000af6 <.Loc.3>:
    US_TRIG_R_VOOR_PORT |= (1 << US_TRIG_R_VOOR); _delay_us(10);
     af6:	46 9a       	sbi	0x08, 6	; 8

00000af8 <.LBB10>:
	#else
		//round up by default
		__ticks_dc = (uint32_t)(ceil(fabs(__tmp)));
	#endif

	__builtin_avr_delay_cycles(__ticks_dc);
     af8:	25 e3       	ldi	r18, 0x35	; 53

00000afa <.L1^B1>:
     afa:	2a 95       	dec	r18
     afc:	f1 f7       	brne	.-4      	; 0xafa <.L1^B1>
	...

00000b00 <.LBE10>:
    US_TRIG_R_VOOR_PORT &= ~(1 << US_TRIG_R_VOOR);
     b00:	46 98       	cbi	0x08, 6	; 8

00000b02 <.Loc.16>:

    // 2. Wacht op echo
    uint32_t timeout = TIMEOUT;
     b02:	80 e1       	ldi	r24, 0x10	; 16
     b04:	97 e2       	ldi	r25, 0x27	; 39
     b06:	a0 e0       	ldi	r26, 0x00	; 0
     b08:	b0 e0       	ldi	r27, 0x00	; 0

00000b0a <.L3>:
    while (!(US_ECHO_R_VOOR_PIN & (1 << US_ECHO_R_VOOR)) && timeout--);
     b0a:	37 99       	sbic	0x06, 7	; 6
     b0c:	05 c0       	rjmp	.+10     	; 0xb18 <.L2>

00000b0e <.Loc.20>:
     b0e:	01 97       	sbiw	r24, 0x01	; 1
     b10:	a1 09       	sbc	r26, r1
     b12:	b1 09       	sbc	r27, r1
     b14:	d0 f7       	brcc	.-12     	; 0xb0a <.L3>

00000b16 <.Loc.21>:
     b16:	05 c0       	rjmp	.+10     	; 0xb22 <.L4>

00000b18 <.L2>:
    if (timeout == 0) return 999;
     b18:	89 2b       	or	r24, r25
     b1a:	8a 2b       	or	r24, r26
     b1c:	8b 2b       	or	r24, r27
     b1e:	09 f4       	brne	.+2      	; 0xb22 <.L4>

00000b20 <L0^A>:
     b20:	42 c0       	rjmp	.+132    	; 0xba6 <.L8>

00000b22 <.L4>:

    // 3. Timer starten (prescaler 8)
    TCNT1 = 0;
     b22:	10 92 85 00 	sts	0x0085, r1	; 0x800085 <__TEXT_REGION_LENGTH__+0x700085>
     b26:	10 92 84 00 	sts	0x0084, r1	; 0x800084 <__TEXT_REGION_LENGTH__+0x700084>

00000b2a <.Loc.26>:
    TCCR1B = (1 << CS11);
     b2a:	82 e0       	ldi	r24, 0x02	; 2
     b2c:	80 93 81 00 	sts	0x0081, r24	; 0x800081 <__TEXT_REGION_LENGTH__+0x700081>

00000b30 <.Loc.28>:

    // 4. Wachten op einde echo
    while (US_ECHO_R_VOOR_PIN & (1 << US_ECHO_R_VOOR) && TCNT1 < OVERFLOW);
     b30:	e4 e8       	ldi	r30, 0x84	; 132
     b32:	f0 e0       	ldi	r31, 0x00	; 0

00000b34 <.L7>:
     b34:	37 9b       	sbis	0x06, 7	; 6
     b36:	05 c0       	rjmp	.+10     	; 0xb42 <.L6>

00000b38 <.Loc.31>:
     b38:	80 81       	ld	r24, Z
     b3a:	91 81       	ldd	r25, Z+1	; 0x01

00000b3c <.Loc.32>:
     b3c:	80 34       	cpi	r24, 0x40	; 64
     b3e:	9c 49       	sbci	r25, 0x9C	; 156
     b40:	c8 f3       	brcs	.-14     	; 0xb34 <.L7>

00000b42 <.L6>:
    TCCR1B = 0;
     b42:	10 92 81 00 	sts	0x0081, r1	; 0x800081 <__TEXT_REGION_LENGTH__+0x700081>

00000b46 <.Loc.35>:

    // 5. Bereken afstand
    uint16_t distance = TCNT1 * TICKFACTOR;
     b46:	80 91 84 00 	lds	r24, 0x0084	; 0x800084 <__TEXT_REGION_LENGTH__+0x700084>
     b4a:	90 91 85 00 	lds	r25, 0x0085	; 0x800085 <__TEXT_REGION_LENGTH__+0x700085>

00000b4e <.Loc.37>:
     b4e:	9c 01       	movw	r18, r24
     b50:	40 e0       	ldi	r20, 0x00	; 0
     b52:	50 e0       	ldi	r21, 0x00	; 0
     b54:	29 83       	std	Y+1, r18	; 0x01
     b56:	3a 83       	std	Y+2, r19	; 0x02
     b58:	4b 83       	std	Y+3, r20	; 0x03
     b5a:	5c 83       	std	Y+4, r21	; 0x04
     b5c:	ca 01       	movw	r24, r20
     b5e:	b9 01       	movw	r22, r18
     b60:	0e 94 11 08 	call	0x1022	; 0x1022 <__floatunsisf>

00000b64 <.LVL6>:
     b64:	28 e2       	ldi	r18, 0x28	; 40
     b66:	3e e7       	ldi	r19, 0x7E	; 126
     b68:	4c e0       	ldi	r20, 0x0C	; 12
     b6a:	5c e3       	ldi	r21, 0x3C	; 60
     b6c:	69 83       	std	Y+1, r22	; 0x01
     b6e:	7a 83       	std	Y+2, r23	; 0x02
     b70:	8b 83       	std	Y+3, r24	; 0x03
     b72:	9c 83       	std	Y+4, r25	; 0x04
     b74:	69 81       	ldd	r22, Y+1	; 0x01
     b76:	7a 81       	ldd	r23, Y+2	; 0x02
     b78:	8b 81       	ldd	r24, Y+3	; 0x03
     b7a:	9c 81       	ldd	r25, Y+4	; 0x04
     b7c:	0e 94 9f 08 	call	0x113e	; 0x113e <__mulsf3>

00000b80 <.LVL7>:
     b80:	69 83       	std	Y+1, r22	; 0x01
     b82:	7a 83       	std	Y+2, r23	; 0x02
     b84:	8b 83       	std	Y+3, r24	; 0x03
     b86:	9c 83       	std	Y+4, r25	; 0x04
     b88:	69 81       	ldd	r22, Y+1	; 0x01
     b8a:	7a 81       	ldd	r23, Y+2	; 0x02
     b8c:	8b 81       	ldd	r24, Y+3	; 0x03
     b8e:	9c 81       	ldd	r25, Y+4	; 0x04
     b90:	0e 94 e2 07 	call	0xfc4	; 0xfc4 <__fixunssfsi>

00000b94 <.LVL8>:
     b94:	86 2f       	mov	r24, r22
     b96:	97 2f       	mov	r25, r23

00000b98 <.L1>:

    // 6. Return waarde
    return distance;
}
     b98:	0f 90       	pop	r0
     b9a:	0f 90       	pop	r0
     b9c:	0f 90       	pop	r0
     b9e:	0f 90       	pop	r0
     ba0:	df 91       	pop	r29
     ba2:	cf 91       	pop	r28
     ba4:	08 95       	ret

00000ba6 <.L8>:
    if (timeout == 0) return 999;
     ba6:	87 ee       	ldi	r24, 0xE7	; 231
     ba8:	93 e0       	ldi	r25, 0x03	; 3

00000baa <.Loc.42>:
     baa:	f6 cf       	rjmp	.-20     	; 0xb98 <.L1>

00000bac <ultrasoonAfstand_L_VOOR>:

uint16_t ultrasoonAfstand_L_VOOR(void)
{
     bac:	cf 93       	push	r28
     bae:	df 93       	push	r29
     bb0:	00 d0       	rcall	.+0      	; 0xbb2 <L0^A>

00000bb2 <L0^A>:
     bb2:	0f 92       	push	r0
     bb4:	cd b7       	in	r28, 0x3d	; 61
     bb6:	de b7       	in	r29, 0x3e	; 62

00000bb8 <.Loc.44>:
    // 1. Trigger
    US_TRIG_L_VOOR_PORT &= ~(1 << US_TRIG_L_VOOR); //_delay_us(2);
     bb8:	17 98       	cbi	0x02, 7	; 2

00000bba <.Loc.46>:
    US_TRIG_L_VOOR_PORT |= (1 << US_TRIG_L_VOOR); _delay_us(10);
     bba:	17 9a       	sbi	0x02, 7	; 2

00000bbc <.LBB12>:
     bbc:	25 e3       	ldi	r18, 0x35	; 53

00000bbe <.L1^B2>:
     bbe:	2a 95       	dec	r18
     bc0:	f1 f7       	brne	.-4      	; 0xbbe <.L1^B2>
	...

00000bc4 <.LBE12>:
    US_TRIG_L_VOOR_PORT &= ~(1 << US_TRIG_L_VOOR);
     bc4:	17 98       	cbi	0x02, 7	; 2

00000bc6 <.Loc.59>:

    // 2. Wacht op start echo
    uint32_t timeout = TIMEOUT;
     bc6:	80 e1       	ldi	r24, 0x10	; 16
     bc8:	97 e2       	ldi	r25, 0x27	; 39
     bca:	a0 e0       	ldi	r26, 0x00	; 0
     bcc:	b0 e0       	ldi	r27, 0x00	; 0

00000bce <.L13>:
    while(!(US_ECHO_L_VOOR_PIN & (1 << US_ECHO_L_VOOR)) && timeout--);
     bce:	06 99       	sbic	0x00, 6	; 0
     bd0:	05 c0       	rjmp	.+10     	; 0xbdc <.L12>

00000bd2 <.Loc.63>:
     bd2:	01 97       	sbiw	r24, 0x01	; 1
     bd4:	a1 09       	sbc	r26, r1
     bd6:	b1 09       	sbc	r27, r1
     bd8:	d0 f7       	brcc	.-12     	; 0xbce <.L13>

00000bda <.Loc.64>:
     bda:	05 c0       	rjmp	.+10     	; 0xbe6 <.L14>

00000bdc <.L12>:
    if(timeout == 0) return 999; // Foutmelding
     bdc:	89 2b       	or	r24, r25
     bde:	8a 2b       	or	r24, r26
     be0:	8b 2b       	or	r24, r27
     be2:	09 f4       	brne	.+2      	; 0xbe6 <.L14>

00000be4 <L0^A>:
     be4:	42 c0       	rjmp	.+132    	; 0xc6a <.L18>

00000be6 <.L14>:

    // 3. Start timer (Prescaler 8 -> 1 tick = 0.5us)
    TCNT1 = 0;
     be6:	10 92 85 00 	sts	0x0085, r1	; 0x800085 <__TEXT_REGION_LENGTH__+0x700085>
     bea:	10 92 84 00 	sts	0x0084, r1	; 0x800084 <__TEXT_REGION_LENGTH__+0x700084>

00000bee <.Loc.69>:
    TCCR1B = (1 << CS11);
     bee:	82 e0       	ldi	r24, 0x02	; 2
     bf0:	80 93 81 00 	sts	0x0081, r24	; 0x800081 <__TEXT_REGION_LENGTH__+0x700081>

00000bf4 <.Loc.71>:

    // 4. Wacht op einde echo
    while((US_ECHO_L_VOOR_PIN & (1 << US_ECHO_L_VOOR)) && TCNT1 < OVERFLOW);
     bf4:	e4 e8       	ldi	r30, 0x84	; 132
     bf6:	f0 e0       	ldi	r31, 0x00	; 0

00000bf8 <.L17>:
     bf8:	06 9b       	sbis	0x00, 6	; 0
     bfa:	05 c0       	rjmp	.+10     	; 0xc06 <.L16>

00000bfc <.Loc.74>:
     bfc:	80 81       	ld	r24, Z
     bfe:	91 81       	ldd	r25, Z+1	; 0x01

00000c00 <.Loc.75>:
     c00:	80 34       	cpi	r24, 0x40	; 64
     c02:	9c 49       	sbci	r25, 0x9C	; 156
     c04:	c8 f3       	brcs	.-14     	; 0xbf8 <.L17>

00000c06 <.L16>:
    TCCR1B = 0; // Stop timer
     c06:	10 92 81 00 	sts	0x0081, r1	; 0x800081 <__TEXT_REGION_LENGTH__+0x700081>

00000c0a <.Loc.78>:

    // 5. Bereken: ticks * 0.5us * 0.0343 / 2
    uint16_t distanceL = TCNT1 * TICKFACTOR;
     c0a:	80 91 84 00 	lds	r24, 0x0084	; 0x800084 <__TEXT_REGION_LENGTH__+0x700084>
     c0e:	90 91 85 00 	lds	r25, 0x0085	; 0x800085 <__TEXT_REGION_LENGTH__+0x700085>

00000c12 <.Loc.80>:
     c12:	9c 01       	movw	r18, r24
     c14:	40 e0       	ldi	r20, 0x00	; 0
     c16:	50 e0       	ldi	r21, 0x00	; 0
     c18:	29 83       	std	Y+1, r18	; 0x01
     c1a:	3a 83       	std	Y+2, r19	; 0x02
     c1c:	4b 83       	std	Y+3, r20	; 0x03
     c1e:	5c 83       	std	Y+4, r21	; 0x04
     c20:	ca 01       	movw	r24, r20
     c22:	b9 01       	movw	r22, r18
     c24:	0e 94 11 08 	call	0x1022	; 0x1022 <__floatunsisf>

00000c28 <.LVL18>:
     c28:	28 e2       	ldi	r18, 0x28	; 40
     c2a:	3e e7       	ldi	r19, 0x7E	; 126
     c2c:	4c e0       	ldi	r20, 0x0C	; 12
     c2e:	5c e3       	ldi	r21, 0x3C	; 60
     c30:	69 83       	std	Y+1, r22	; 0x01
     c32:	7a 83       	std	Y+2, r23	; 0x02
     c34:	8b 83       	std	Y+3, r24	; 0x03
     c36:	9c 83       	std	Y+4, r25	; 0x04
     c38:	69 81       	ldd	r22, Y+1	; 0x01
     c3a:	7a 81       	ldd	r23, Y+2	; 0x02
     c3c:	8b 81       	ldd	r24, Y+3	; 0x03
     c3e:	9c 81       	ldd	r25, Y+4	; 0x04
     c40:	0e 94 9f 08 	call	0x113e	; 0x113e <__mulsf3>

00000c44 <.LVL19>:
     c44:	69 83       	std	Y+1, r22	; 0x01
     c46:	7a 83       	std	Y+2, r23	; 0x02
     c48:	8b 83       	std	Y+3, r24	; 0x03
     c4a:	9c 83       	std	Y+4, r25	; 0x04
     c4c:	69 81       	ldd	r22, Y+1	; 0x01
     c4e:	7a 81       	ldd	r23, Y+2	; 0x02
     c50:	8b 81       	ldd	r24, Y+3	; 0x03
     c52:	9c 81       	ldd	r25, Y+4	; 0x04
     c54:	0e 94 e2 07 	call	0xfc4	; 0xfc4 <__fixunssfsi>

00000c58 <.LVL20>:
     c58:	86 2f       	mov	r24, r22
     c5a:	97 2f       	mov	r25, r23

00000c5c <.L11>:

    // 6. Return waarde
    return distanceL;
}
     c5c:	0f 90       	pop	r0
     c5e:	0f 90       	pop	r0
     c60:	0f 90       	pop	r0
     c62:	0f 90       	pop	r0
     c64:	df 91       	pop	r29
     c66:	cf 91       	pop	r28
     c68:	08 95       	ret

00000c6a <.L18>:
    if(timeout == 0) return 999; // Foutmelding
     c6a:	87 ee       	ldi	r24, 0xE7	; 231
     c6c:	93 e0       	ldi	r25, 0x03	; 3

00000c6e <.Loc.85>:
     c6e:	f6 cf       	rjmp	.-20     	; 0xc5c <.L11>

00000c70 <ultrasoonAfstand_R_ACHTER>:

///ACHTERUIT///
uint16_t ultrasoonAfstand_R_ACHTER(void)
{
     c70:	cf 93       	push	r28
     c72:	df 93       	push	r29
     c74:	00 d0       	rcall	.+0      	; 0xc76 <L0^A>

00000c76 <L0^A>:
     c76:	0f 92       	push	r0
     c78:	cd b7       	in	r28, 0x3d	; 61
     c7a:	de b7       	in	r29, 0x3e	; 62

00000c7c <.Loc.87>:
    // 1. Trigger
    US_TRIG_R_ACHTER_PORT &= ~(1 << US_TRIG_R_ACHTER);
     c7c:	42 98       	cbi	0x08, 2	; 8

00000c7e <.Loc.89>:
    US_TRIG_R_ACHTER_PORT |= (1 << US_TRIG_R_ACHTER); _delay_us(10);
     c7e:	42 9a       	sbi	0x08, 2	; 8

00000c80 <.LBB14>:
     c80:	25 e3       	ldi	r18, 0x35	; 53

00000c82 <.L1^B3>:
     c82:	2a 95       	dec	r18
     c84:	f1 f7       	brne	.-4      	; 0xc82 <.L1^B3>
	...

00000c88 <.LBE14>:
    US_TRIG_R_ACHTER_PORT &= ~(1 << US_TRIG_R_ACHTER);
     c88:	42 98       	cbi	0x08, 2	; 8

00000c8a <.Loc.102>:

    // 2. Wacht op echo
    uint32_t timeout = TIMEOUT;
     c8a:	80 e1       	ldi	r24, 0x10	; 16
     c8c:	97 e2       	ldi	r25, 0x27	; 39
     c8e:	a0 e0       	ldi	r26, 0x00	; 0
     c90:	b0 e0       	ldi	r27, 0x00	; 0

00000c92 <.L23>:
    while (!(US_ECHO_R_ACHTER_PIN & (1 << US_ECHO_R_ACHTER)) && timeout--);
     c92:	33 99       	sbic	0x06, 3	; 6
     c94:	05 c0       	rjmp	.+10     	; 0xca0 <.L22>

00000c96 <.Loc.106>:
     c96:	01 97       	sbiw	r24, 0x01	; 1
     c98:	a1 09       	sbc	r26, r1
     c9a:	b1 09       	sbc	r27, r1
     c9c:	d0 f7       	brcc	.-12     	; 0xc92 <.L23>

00000c9e <.Loc.107>:
     c9e:	05 c0       	rjmp	.+10     	; 0xcaa <.L24>

00000ca0 <.L22>:
    if (timeout == 0) return 999;
     ca0:	89 2b       	or	r24, r25
     ca2:	8a 2b       	or	r24, r26
     ca4:	8b 2b       	or	r24, r27
     ca6:	09 f4       	brne	.+2      	; 0xcaa <.L24>

00000ca8 <L0^A>:
     ca8:	42 c0       	rjmp	.+132    	; 0xd2e <.L28>

00000caa <.L24>:

    // 3. Timer starten (prescaler 8)
    TCNT1 = 0;
     caa:	10 92 85 00 	sts	0x0085, r1	; 0x800085 <__TEXT_REGION_LENGTH__+0x700085>
     cae:	10 92 84 00 	sts	0x0084, r1	; 0x800084 <__TEXT_REGION_LENGTH__+0x700084>

00000cb2 <.Loc.112>:
    TCCR1B = (1 << CS11);
     cb2:	82 e0       	ldi	r24, 0x02	; 2
     cb4:	80 93 81 00 	sts	0x0081, r24	; 0x800081 <__TEXT_REGION_LENGTH__+0x700081>

00000cb8 <.Loc.114>:

    // 4. Wachten op einde echo
    while (US_ECHO_R_ACHTER_PIN & (1 << US_ECHO_R_ACHTER) && TCNT1 < OVERFLOW);
     cb8:	e4 e8       	ldi	r30, 0x84	; 132
     cba:	f0 e0       	ldi	r31, 0x00	; 0

00000cbc <.L27>:
     cbc:	33 9b       	sbis	0x06, 3	; 6
     cbe:	05 c0       	rjmp	.+10     	; 0xcca <.L26>

00000cc0 <.Loc.117>:
     cc0:	80 81       	ld	r24, Z
     cc2:	91 81       	ldd	r25, Z+1	; 0x01

00000cc4 <.Loc.118>:
     cc4:	80 34       	cpi	r24, 0x40	; 64
     cc6:	9c 49       	sbci	r25, 0x9C	; 156
     cc8:	c8 f3       	brcs	.-14     	; 0xcbc <.L27>

00000cca <.L26>:
    TCCR1B = 0;
     cca:	10 92 81 00 	sts	0x0081, r1	; 0x800081 <__TEXT_REGION_LENGTH__+0x700081>

00000cce <.Loc.121>:

    // 5. Bereken afstand
    uint16_t distance = TCNT1 * TICKFACTOR;
     cce:	80 91 84 00 	lds	r24, 0x0084	; 0x800084 <__TEXT_REGION_LENGTH__+0x700084>
     cd2:	90 91 85 00 	lds	r25, 0x0085	; 0x800085 <__TEXT_REGION_LENGTH__+0x700085>

00000cd6 <.Loc.123>:
     cd6:	9c 01       	movw	r18, r24
     cd8:	40 e0       	ldi	r20, 0x00	; 0
     cda:	50 e0       	ldi	r21, 0x00	; 0
     cdc:	29 83       	std	Y+1, r18	; 0x01
     cde:	3a 83       	std	Y+2, r19	; 0x02
     ce0:	4b 83       	std	Y+3, r20	; 0x03
     ce2:	5c 83       	std	Y+4, r21	; 0x04
     ce4:	ca 01       	movw	r24, r20
     ce6:	b9 01       	movw	r22, r18
     ce8:	0e 94 11 08 	call	0x1022	; 0x1022 <__floatunsisf>

00000cec <.LVL30>:
     cec:	28 e2       	ldi	r18, 0x28	; 40
     cee:	3e e7       	ldi	r19, 0x7E	; 126
     cf0:	4c e0       	ldi	r20, 0x0C	; 12
     cf2:	5c e3       	ldi	r21, 0x3C	; 60
     cf4:	69 83       	std	Y+1, r22	; 0x01
     cf6:	7a 83       	std	Y+2, r23	; 0x02
     cf8:	8b 83       	std	Y+3, r24	; 0x03
     cfa:	9c 83       	std	Y+4, r25	; 0x04
     cfc:	69 81       	ldd	r22, Y+1	; 0x01
     cfe:	7a 81       	ldd	r23, Y+2	; 0x02
     d00:	8b 81       	ldd	r24, Y+3	; 0x03
     d02:	9c 81       	ldd	r25, Y+4	; 0x04
     d04:	0e 94 9f 08 	call	0x113e	; 0x113e <__mulsf3>

00000d08 <.LVL31>:
     d08:	69 83       	std	Y+1, r22	; 0x01
     d0a:	7a 83       	std	Y+2, r23	; 0x02
     d0c:	8b 83       	std	Y+3, r24	; 0x03
     d0e:	9c 83       	std	Y+4, r25	; 0x04
     d10:	69 81       	ldd	r22, Y+1	; 0x01
     d12:	7a 81       	ldd	r23, Y+2	; 0x02
     d14:	8b 81       	ldd	r24, Y+3	; 0x03
     d16:	9c 81       	ldd	r25, Y+4	; 0x04
     d18:	0e 94 e2 07 	call	0xfc4	; 0xfc4 <__fixunssfsi>

00000d1c <.LVL32>:
     d1c:	86 2f       	mov	r24, r22
     d1e:	97 2f       	mov	r25, r23

00000d20 <.L21>:

    // 6. Return waarde
    return distance;
}
     d20:	0f 90       	pop	r0
     d22:	0f 90       	pop	r0
     d24:	0f 90       	pop	r0
     d26:	0f 90       	pop	r0
     d28:	df 91       	pop	r29
     d2a:	cf 91       	pop	r28
     d2c:	08 95       	ret

00000d2e <.L28>:
    if (timeout == 0) return 999;
     d2e:	87 ee       	ldi	r24, 0xE7	; 231
     d30:	93 e0       	ldi	r25, 0x03	; 3

00000d32 <.Loc.128>:
     d32:	f6 cf       	rjmp	.-20     	; 0xd20 <.L21>

00000d34 <ultrasoonAfstand_L_ACHTER>:

uint16_t ultrasoonAfstand_L_ACHTER(void)
{
     d34:	cf 93       	push	r28
     d36:	df 93       	push	r29
     d38:	00 d0       	rcall	.+0      	; 0xd3a <L0^A>

00000d3a <L0^A>:
     d3a:	0f 92       	push	r0
     d3c:	cd b7       	in	r28, 0x3d	; 61
     d3e:	de b7       	in	r29, 0x3e	; 62

00000d40 <.Loc.130>:
    // 1. Trigger
    US_TRIG_L_ACHTER_PORT &= ~(1 << US_TRIG_L_ACHTER); //_delay_us(2);
     d40:	44 98       	cbi	0x08, 4	; 8

00000d42 <.Loc.132>:
    US_TRIG_L_ACHTER_PORT |= (1 << US_TRIG_L_ACHTER); _delay_us(10);
     d42:	44 9a       	sbi	0x08, 4	; 8

00000d44 <.LBB16>:
     d44:	25 e3       	ldi	r18, 0x35	; 53

00000d46 <.L1^B4>:
     d46:	2a 95       	dec	r18
     d48:	f1 f7       	brne	.-4      	; 0xd46 <.L1^B4>
	...

00000d4c <.LBE16>:
    US_TRIG_L_ACHTER_PORT &= ~(1 << US_TRIG_L_ACHTER);
     d4c:	44 98       	cbi	0x08, 4	; 8

00000d4e <.Loc.145>:

    // 2. Wacht op start echo
    uint32_t timeout = TIMEOUT;
     d4e:	80 e1       	ldi	r24, 0x10	; 16
     d50:	97 e2       	ldi	r25, 0x27	; 39
     d52:	a0 e0       	ldi	r26, 0x00	; 0
     d54:	b0 e0       	ldi	r27, 0x00	; 0

00000d56 <.L33>:
    while(!(US_ECHO_L_ACHTER_PIN & (1 << US_ECHO_L_ACHTER)) && timeout--);
     d56:	35 99       	sbic	0x06, 5	; 6
     d58:	05 c0       	rjmp	.+10     	; 0xd64 <.L32>

00000d5a <.Loc.149>:
     d5a:	01 97       	sbiw	r24, 0x01	; 1
     d5c:	a1 09       	sbc	r26, r1
     d5e:	b1 09       	sbc	r27, r1
     d60:	d0 f7       	brcc	.-12     	; 0xd56 <.L33>

00000d62 <.Loc.150>:
     d62:	05 c0       	rjmp	.+10     	; 0xd6e <.L34>

00000d64 <.L32>:
    if(timeout == 0) return 999; // Foutmelding
     d64:	89 2b       	or	r24, r25
     d66:	8a 2b       	or	r24, r26
     d68:	8b 2b       	or	r24, r27
     d6a:	09 f4       	brne	.+2      	; 0xd6e <.L34>

00000d6c <L0^A>:
     d6c:	42 c0       	rjmp	.+132    	; 0xdf2 <.L38>

00000d6e <.L34>:

    // 3. Start timer (Prescaler 8 -> 1 tick = 0.5us)
    TCNT1 = 0;
     d6e:	10 92 85 00 	sts	0x0085, r1	; 0x800085 <__TEXT_REGION_LENGTH__+0x700085>
     d72:	10 92 84 00 	sts	0x0084, r1	; 0x800084 <__TEXT_REGION_LENGTH__+0x700084>

00000d76 <.Loc.155>:
    TCCR1B = (1 << CS11);
     d76:	82 e0       	ldi	r24, 0x02	; 2
     d78:	80 93 81 00 	sts	0x0081, r24	; 0x800081 <__TEXT_REGION_LENGTH__+0x700081>

00000d7c <.Loc.157>:

    // 4. Wacht op einde echo
    while((US_ECHO_L_ACHTER_PIN & (1 << US_ECHO_L_ACHTER)) && TCNT1 < OVERFLOW);
     d7c:	e4 e8       	ldi	r30, 0x84	; 132
     d7e:	f0 e0       	ldi	r31, 0x00	; 0

00000d80 <.L37>:
     d80:	35 9b       	sbis	0x06, 5	; 6
     d82:	05 c0       	rjmp	.+10     	; 0xd8e <.L36>

00000d84 <.Loc.160>:
     d84:	80 81       	ld	r24, Z
     d86:	91 81       	ldd	r25, Z+1	; 0x01

00000d88 <.Loc.161>:
     d88:	80 34       	cpi	r24, 0x40	; 64
     d8a:	9c 49       	sbci	r25, 0x9C	; 156
     d8c:	c8 f3       	brcs	.-14     	; 0xd80 <.L37>

00000d8e <.L36>:
    TCCR1B = 0; // Stop timer
     d8e:	10 92 81 00 	sts	0x0081, r1	; 0x800081 <__TEXT_REGION_LENGTH__+0x700081>

00000d92 <.Loc.164>:

    // 5. Bereken: ticks * 0.5us * 0.0343 / 2
    uint16_t distanceL = TCNT1 * TICKFACTOR;
     d92:	80 91 84 00 	lds	r24, 0x0084	; 0x800084 <__TEXT_REGION_LENGTH__+0x700084>
     d96:	90 91 85 00 	lds	r25, 0x0085	; 0x800085 <__TEXT_REGION_LENGTH__+0x700085>

00000d9a <.Loc.166>:
     d9a:	9c 01       	movw	r18, r24
     d9c:	40 e0       	ldi	r20, 0x00	; 0
     d9e:	50 e0       	ldi	r21, 0x00	; 0
     da0:	29 83       	std	Y+1, r18	; 0x01
     da2:	3a 83       	std	Y+2, r19	; 0x02
     da4:	4b 83       	std	Y+3, r20	; 0x03
     da6:	5c 83       	std	Y+4, r21	; 0x04
     da8:	ca 01       	movw	r24, r20
     daa:	b9 01       	movw	r22, r18
     dac:	0e 94 11 08 	call	0x1022	; 0x1022 <__floatunsisf>

00000db0 <.LVL42>:
     db0:	28 e2       	ldi	r18, 0x28	; 40
     db2:	3e e7       	ldi	r19, 0x7E	; 126
     db4:	4c e0       	ldi	r20, 0x0C	; 12
     db6:	5c e3       	ldi	r21, 0x3C	; 60
     db8:	69 83       	std	Y+1, r22	; 0x01
     dba:	7a 83       	std	Y+2, r23	; 0x02
     dbc:	8b 83       	std	Y+3, r24	; 0x03
     dbe:	9c 83       	std	Y+4, r25	; 0x04
     dc0:	69 81       	ldd	r22, Y+1	; 0x01
     dc2:	7a 81       	ldd	r23, Y+2	; 0x02
     dc4:	8b 81       	ldd	r24, Y+3	; 0x03
     dc6:	9c 81       	ldd	r25, Y+4	; 0x04
     dc8:	0e 94 9f 08 	call	0x113e	; 0x113e <__mulsf3>

00000dcc <.LVL43>:
     dcc:	69 83       	std	Y+1, r22	; 0x01
     dce:	7a 83       	std	Y+2, r23	; 0x02
     dd0:	8b 83       	std	Y+3, r24	; 0x03
     dd2:	9c 83       	std	Y+4, r25	; 0x04
     dd4:	69 81       	ldd	r22, Y+1	; 0x01
     dd6:	7a 81       	ldd	r23, Y+2	; 0x02
     dd8:	8b 81       	ldd	r24, Y+3	; 0x03
     dda:	9c 81       	ldd	r25, Y+4	; 0x04
     ddc:	0e 94 e2 07 	call	0xfc4	; 0xfc4 <__fixunssfsi>

00000de0 <.LVL44>:
     de0:	86 2f       	mov	r24, r22
     de2:	97 2f       	mov	r25, r23

00000de4 <.L31>:

    // 6. Return waarde
    return distanceL;
}
     de4:	0f 90       	pop	r0
     de6:	0f 90       	pop	r0
     de8:	0f 90       	pop	r0
     dea:	0f 90       	pop	r0
     dec:	df 91       	pop	r29
     dee:	cf 91       	pop	r28
     df0:	08 95       	ret

00000df2 <.L38>:
    if(timeout == 0) return 999; // Foutmelding
     df2:	87 ee       	ldi	r24, 0xE7	; 231
     df4:	93 e0       	ldi	r25, 0x03	; 3

00000df6 <.Loc.171>:
     df6:	f6 cf       	rjmp	.-20     	; 0xde4 <.L31>

00000df8 <__subsf3>:
     df8:	50 58       	subi	r21, 0x80	; 128

00000dfa <__addsf3>:
     dfa:	bb 27       	eor	r27, r27
     dfc:	aa 27       	eor	r26, r26
     dfe:	0e 94 14 07 	call	0xe28	; 0xe28 <__addsf3x>
     e02:	0c 94 65 08 	jmp	0x10ca	; 0x10ca <__fp_round>

00000e06 <.L^B1>:
     e06:	0e 94 57 08 	call	0x10ae	; 0x10ae <__fp_pscA>
     e0a:	38 f0       	brcs	.+14     	; 0xe1a <.L_nan>
     e0c:	0e 94 5e 08 	call	0x10bc	; 0x10bc <__fp_pscB>
     e10:	20 f0       	brcs	.+8      	; 0xe1a <.L_nan>
     e12:	39 f4       	brne	.+14     	; 0xe22 <.L_inf>
     e14:	9f 3f       	cpi	r25, 0xFF	; 255
     e16:	19 f4       	brne	.+6      	; 0xe1e <.L_infB>
     e18:	26 f4       	brtc	.+8      	; 0xe22 <.L_inf>

00000e1a <.L_nan>:
     e1a:	0c 94 54 08 	jmp	0x10a8	; 0x10a8 <__fp_nan>

00000e1e <.L_infB>:
     e1e:	0e f4       	brtc	.+2      	; 0xe22 <.L_inf>
     e20:	e0 95       	com	r30

00000e22 <.L_inf>:
     e22:	e7 fb       	bst	r30, 7
     e24:	0c 94 4e 08 	jmp	0x109c	; 0x109c <__fp_inf>

00000e28 <__addsf3x>:
     e28:	e9 2f       	mov	r30, r25
     e2a:	0e 94 76 08 	call	0x10ec	; 0x10ec <__fp_split3>
     e2e:	58 f3       	brcs	.-42     	; 0xe06 <.L^B1>
     e30:	ba 17       	cp	r27, r26
     e32:	62 07       	cpc	r22, r18
     e34:	73 07       	cpc	r23, r19
     e36:	84 07       	cpc	r24, r20
     e38:	95 07       	cpc	r25, r21
     e3a:	20 f0       	brcs	.+8      	; 0xe44 <.L2^B1>
     e3c:	79 f4       	brne	.+30     	; 0xe5c <.L4^B1>
     e3e:	a6 f5       	brtc	.+104    	; 0xea8 <.L_add>
     e40:	0c 94 98 08 	jmp	0x1130	; 0x1130 <__fp_zero>

00000e44 <.L2^B1>:
     e44:	0e f4       	brtc	.+2      	; 0xe48 <.L3^B1>
     e46:	e0 95       	com	r30

00000e48 <.L3^B1>:
     e48:	0b 2e       	mov	r0, r27
     e4a:	ba 2f       	mov	r27, r26
     e4c:	a0 2d       	mov	r26, r0
     e4e:	0b 01       	movw	r0, r22
     e50:	b9 01       	movw	r22, r18
     e52:	90 01       	movw	r18, r0
     e54:	0c 01       	movw	r0, r24
     e56:	ca 01       	movw	r24, r20
     e58:	a0 01       	movw	r20, r0
     e5a:	11 24       	eor	r1, r1

00000e5c <.L4^B1>:
     e5c:	ff 27       	eor	r31, r31
     e5e:	59 1b       	sub	r21, r25

00000e60 <.L5^B1>:
     e60:	99 f0       	breq	.+38     	; 0xe88 <.L7^B1>
     e62:	59 3f       	cpi	r21, 0xF9	; 249
     e64:	50 f4       	brcc	.+20     	; 0xe7a <.L6^B1>
     e66:	50 3e       	cpi	r21, 0xE0	; 224
     e68:	68 f1       	brcs	.+90     	; 0xec4 <.L_ret>
     e6a:	1a 16       	cp	r1, r26
     e6c:	f0 40       	sbci	r31, 0x00	; 0
     e6e:	a2 2f       	mov	r26, r18
     e70:	23 2f       	mov	r18, r19
     e72:	34 2f       	mov	r19, r20
     e74:	44 27       	eor	r20, r20
     e76:	58 5f       	subi	r21, 0xF8	; 248
     e78:	f3 cf       	rjmp	.-26     	; 0xe60 <.L5^B1>

00000e7a <.L6^B1>:
     e7a:	46 95       	lsr	r20
     e7c:	37 95       	ror	r19
     e7e:	27 95       	ror	r18
     e80:	a7 95       	ror	r26
     e82:	f0 40       	sbci	r31, 0x00	; 0
     e84:	53 95       	inc	r21
     e86:	c9 f7       	brne	.-14     	; 0xe7a <.L6^B1>

00000e88 <.L7^B1>:
     e88:	7e f4       	brtc	.+30     	; 0xea8 <.L_add>
     e8a:	1f 16       	cp	r1, r31
     e8c:	ba 0b       	sbc	r27, r26
     e8e:	62 0b       	sbc	r22, r18
     e90:	73 0b       	sbc	r23, r19
     e92:	84 0b       	sbc	r24, r20
     e94:	ba f0       	brmi	.+46     	; 0xec4 <.L_ret>

00000e96 <.L8^B1>:
     e96:	91 50       	subi	r25, 0x01	; 1
     e98:	a1 f0       	breq	.+40     	; 0xec2 <.L9^B1>
     e9a:	ff 0f       	add	r31, r31
     e9c:	bb 1f       	adc	r27, r27
     e9e:	66 1f       	adc	r22, r22
     ea0:	77 1f       	adc	r23, r23
     ea2:	88 1f       	adc	r24, r24
     ea4:	c2 f7       	brpl	.-16     	; 0xe96 <.L8^B1>
     ea6:	0e c0       	rjmp	.+28     	; 0xec4 <.L_ret>

00000ea8 <.L_add>:
     ea8:	ba 0f       	add	r27, r26
     eaa:	62 1f       	adc	r22, r18
     eac:	73 1f       	adc	r23, r19
     eae:	84 1f       	adc	r24, r20
     eb0:	48 f4       	brcc	.+18     	; 0xec4 <.L_ret>
     eb2:	87 95       	ror	r24
     eb4:	77 95       	ror	r23
     eb6:	67 95       	ror	r22
     eb8:	b7 95       	ror	r27
     eba:	f7 95       	ror	r31
     ebc:	9e 3f       	cpi	r25, 0xFE	; 254
     ebe:	08 f0       	brcs	.+2      	; 0xec2 <.L9^B1>
     ec0:	b0 cf       	rjmp	.-160    	; 0xe22 <.L_inf>

00000ec2 <.L9^B1>:
     ec2:	93 95       	inc	r25

00000ec4 <.L_ret>:
     ec4:	88 0f       	add	r24, r24
     ec6:	08 f0       	brcs	.+2      	; 0xeca <.L1^B1>
     ec8:	99 27       	eor	r25, r25

00000eca <.L1^B1>:
     eca:	ee 0f       	add	r30, r30
     ecc:	97 95       	ror	r25
     ece:	87 95       	ror	r24
     ed0:	08 95       	ret

00000ed2 <__divsf3>:
     ed2:	0e 94 7d 07 	call	0xefa	; 0xefa <__divsf3x>
     ed6:	0c 94 65 08 	jmp	0x10ca	; 0x10ca <__fp_round>

00000eda <.L^B1>:
     eda:	0e 94 5e 08 	call	0x10bc	; 0x10bc <__fp_pscB>
     ede:	58 f0       	brcs	.+22     	; 0xef6 <.L_nan>
     ee0:	0e 94 57 08 	call	0x10ae	; 0x10ae <__fp_pscA>
     ee4:	40 f0       	brcs	.+16     	; 0xef6 <.L_nan>
     ee6:	29 f4       	brne	.+10     	; 0xef2 <.L_zr>
     ee8:	5f 3f       	cpi	r21, 0xFF	; 255
     eea:	29 f0       	breq	.+10     	; 0xef6 <.L_nan>

00000eec <.L_inf>:
     eec:	0c 94 4e 08 	jmp	0x109c	; 0x109c <__fp_inf>

00000ef0 <.L1^B1>:
     ef0:	51 11       	cpse	r21, r1

00000ef2 <.L_zr>:
     ef2:	0c 94 99 08 	jmp	0x1132	; 0x1132 <__fp_szero>

00000ef6 <.L_nan>:
     ef6:	0c 94 54 08 	jmp	0x10a8	; 0x10a8 <__fp_nan>

00000efa <__divsf3x>:
     efa:	0e 94 76 08 	call	0x10ec	; 0x10ec <__fp_split3>
     efe:	68 f3       	brcs	.-38     	; 0xeda <.L^B1>

00000f00 <__divsf3_pse>:
     f00:	99 23       	and	r25, r25
     f02:	b1 f3       	breq	.-20     	; 0xef0 <.L1^B1>
     f04:	55 23       	and	r21, r21
     f06:	91 f3       	breq	.-28     	; 0xeec <.L_inf>
     f08:	95 1b       	sub	r25, r21
     f0a:	55 0b       	sbc	r21, r21
     f0c:	bb 27       	eor	r27, r27
     f0e:	aa 27       	eor	r26, r26

00000f10 <.L2^B1>:
     f10:	62 17       	cp	r22, r18
     f12:	73 07       	cpc	r23, r19
     f14:	84 07       	cpc	r24, r20
     f16:	38 f0       	brcs	.+14     	; 0xf26 <.L3^B1>
     f18:	9f 5f       	subi	r25, 0xFF	; 255
     f1a:	5f 4f       	sbci	r21, 0xFF	; 255
     f1c:	22 0f       	add	r18, r18
     f1e:	33 1f       	adc	r19, r19
     f20:	44 1f       	adc	r20, r20
     f22:	aa 1f       	adc	r26, r26
     f24:	a9 f3       	breq	.-22     	; 0xf10 <.L2^B1>

00000f26 <.L3^B1>:
     f26:	35 d0       	rcall	.+106    	; 0xf92 <.L_div>
     f28:	0e 2e       	mov	r0, r30
     f2a:	3a f0       	brmi	.+14     	; 0xf3a <.L5^B1>

00000f2c <.L4^B1>:
     f2c:	e0 e8       	ldi	r30, 0x80	; 128
     f2e:	32 d0       	rcall	.+100    	; 0xf94 <.L_div1>
     f30:	91 50       	subi	r25, 0x01	; 1
     f32:	50 40       	sbci	r21, 0x00	; 0
     f34:	e6 95       	lsr	r30
     f36:	00 1c       	adc	r0, r0
     f38:	ca f7       	brpl	.-14     	; 0xf2c <.L4^B1>

00000f3a <.L5^B1>:
     f3a:	2b d0       	rcall	.+86     	; 0xf92 <.L_div>
     f3c:	fe 2f       	mov	r31, r30
     f3e:	29 d0       	rcall	.+82     	; 0xf92 <.L_div>
     f40:	66 0f       	add	r22, r22
     f42:	77 1f       	adc	r23, r23
     f44:	88 1f       	adc	r24, r24
     f46:	bb 1f       	adc	r27, r27
     f48:	26 17       	cp	r18, r22
     f4a:	37 07       	cpc	r19, r23
     f4c:	48 07       	cpc	r20, r24
     f4e:	ab 07       	cpc	r26, r27
     f50:	b0 e8       	ldi	r27, 0x80	; 128
     f52:	09 f0       	breq	.+2      	; 0xf56 <.L4^B2>
     f54:	bb 0b       	sbc	r27, r27

00000f56 <.L4^B2>:
     f56:	80 2d       	mov	r24, r0
     f58:	bf 01       	movw	r22, r30
     f5a:	ff 27       	eor	r31, r31
     f5c:	93 58       	subi	r25, 0x83	; 131
     f5e:	5f 4f       	sbci	r21, 0xFF	; 255
     f60:	3a f0       	brmi	.+14     	; 0xf70 <.L13^B1>
     f62:	9e 3f       	cpi	r25, 0xFE	; 254
     f64:	51 05       	cpc	r21, r1
     f66:	78 f0       	brcs	.+30     	; 0xf86 <.L15^B1>
     f68:	0c 94 4e 08 	jmp	0x109c	; 0x109c <__fp_inf>

00000f6c <.L12^B1>:
     f6c:	0c 94 99 08 	jmp	0x1132	; 0x1132 <__fp_szero>

00000f70 <.L13^B1>:
     f70:	5f 3f       	cpi	r21, 0xFF	; 255
     f72:	e4 f3       	brlt	.-8      	; 0xf6c <.L12^B1>
     f74:	98 3e       	cpi	r25, 0xE8	; 232
     f76:	d4 f3       	brlt	.-12     	; 0xf6c <.L12^B1>

00000f78 <.L14^B1>:
     f78:	86 95       	lsr	r24
     f7a:	77 95       	ror	r23
     f7c:	67 95       	ror	r22
     f7e:	b7 95       	ror	r27
     f80:	f7 95       	ror	r31
     f82:	9f 5f       	subi	r25, 0xFF	; 255
     f84:	c9 f7       	brne	.-14     	; 0xf78 <.L14^B1>

00000f86 <.L15^B1>:
     f86:	88 0f       	add	r24, r24
     f88:	91 1d       	adc	r25, r1
     f8a:	96 95       	lsr	r25
     f8c:	87 95       	ror	r24
     f8e:	97 f9       	bld	r25, 7
     f90:	08 95       	ret

00000f92 <.L_div>:
     f92:	e1 e0       	ldi	r30, 0x01	; 1

00000f94 <.L_div1>:
     f94:	66 0f       	add	r22, r22
     f96:	77 1f       	adc	r23, r23
     f98:	88 1f       	adc	r24, r24
     f9a:	bb 1f       	adc	r27, r27
     f9c:	62 17       	cp	r22, r18
     f9e:	73 07       	cpc	r23, r19
     fa0:	84 07       	cpc	r24, r20
     fa2:	ba 07       	cpc	r27, r26
     fa4:	20 f0       	brcs	.+8      	; 0xfae <.L2^B2>
     fa6:	62 1b       	sub	r22, r18
     fa8:	73 0b       	sbc	r23, r19
     faa:	84 0b       	sbc	r24, r20
     fac:	ba 0b       	sbc	r27, r26

00000fae <.L2^B2>:
     fae:	ee 1f       	adc	r30, r30
     fb0:	88 f7       	brcc	.-30     	; 0xf94 <.L_div1>
     fb2:	e0 95       	com	r30
     fb4:	08 95       	ret

00000fb6 <__fixsfsi>:
     fb6:	0e 94 e2 07 	call	0xfc4	; 0xfc4 <__fixunssfsi>
     fba:	68 94       	set
     fbc:	b1 11       	cpse	r27, r1
     fbe:	0c 94 99 08 	jmp	0x1132	; 0x1132 <__fp_szero>
     fc2:	08 95       	ret

00000fc4 <__fixunssfsi>:
     fc4:	0e 94 7e 08 	call	0x10fc	; 0x10fc <__fp_splitA>
     fc8:	88 f0       	brcs	.+34     	; 0xfec <.L_err>
     fca:	9f 57       	subi	r25, 0x7F	; 127
     fcc:	98 f0       	brcs	.+38     	; 0xff4 <.L_zr>
     fce:	b9 2f       	mov	r27, r25
     fd0:	99 27       	eor	r25, r25
     fd2:	b7 51       	subi	r27, 0x17	; 23
     fd4:	b0 f0       	brcs	.+44     	; 0x1002 <.L4^B1>
     fd6:	e1 f0       	breq	.+56     	; 0x1010 <.L_sign>

00000fd8 <.L1^B1>:
     fd8:	66 0f       	add	r22, r22
     fda:	77 1f       	adc	r23, r23
     fdc:	88 1f       	adc	r24, r24
     fde:	99 1f       	adc	r25, r25
     fe0:	1a f0       	brmi	.+6      	; 0xfe8 <.L2^B1>
     fe2:	ba 95       	dec	r27
     fe4:	c9 f7       	brne	.-14     	; 0xfd8 <.L1^B1>
     fe6:	14 c0       	rjmp	.+40     	; 0x1010 <.L_sign>

00000fe8 <.L2^B1>:
     fe8:	b1 30       	cpi	r27, 0x01	; 1
     fea:	91 f0       	breq	.+36     	; 0x1010 <.L_sign>

00000fec <.L_err>:
     fec:	0e 94 98 08 	call	0x1130	; 0x1130 <__fp_zero>
     ff0:	b1 e0       	ldi	r27, 0x01	; 1
     ff2:	08 95       	ret

00000ff4 <.L_zr>:
     ff4:	0c 94 98 08 	jmp	0x1130	; 0x1130 <__fp_zero>

00000ff8 <.L3^B1>:
     ff8:	67 2f       	mov	r22, r23
     ffa:	78 2f       	mov	r23, r24
     ffc:	88 27       	eor	r24, r24
     ffe:	b8 5f       	subi	r27, 0xF8	; 248
    1000:	39 f0       	breq	.+14     	; 0x1010 <.L_sign>

00001002 <.L4^B1>:
    1002:	b9 3f       	cpi	r27, 0xF9	; 249
    1004:	cc f3       	brlt	.-14     	; 0xff8 <.L3^B1>

00001006 <.L5^B1>:
    1006:	86 95       	lsr	r24
    1008:	77 95       	ror	r23
    100a:	67 95       	ror	r22
    100c:	b3 95       	inc	r27
    100e:	d9 f7       	brne	.-10     	; 0x1006 <.L5^B1>

00001010 <.L_sign>:
    1010:	3e f4       	brtc	.+14     	; 0x1020 <.L6^B1>
    1012:	90 95       	com	r25
    1014:	80 95       	com	r24
    1016:	70 95       	com	r23
    1018:	61 95       	neg	r22
    101a:	7f 4f       	sbci	r23, 0xFF	; 255
    101c:	8f 4f       	sbci	r24, 0xFF	; 255
    101e:	9f 4f       	sbci	r25, 0xFF	; 255

00001020 <.L6^B1>:
    1020:	08 95       	ret

00001022 <__floatunsisf>:
    1022:	e8 94       	clt
    1024:	09 c0       	rjmp	.+18     	; 0x1038 <.L1^B1>

00001026 <__floatsisf>:
    1026:	97 fb       	bst	r25, 7
    1028:	3e f4       	brtc	.+14     	; 0x1038 <.L1^B1>
    102a:	90 95       	com	r25
    102c:	80 95       	com	r24
    102e:	70 95       	com	r23
    1030:	61 95       	neg	r22
    1032:	7f 4f       	sbci	r23, 0xFF	; 255
    1034:	8f 4f       	sbci	r24, 0xFF	; 255
    1036:	9f 4f       	sbci	r25, 0xFF	; 255

00001038 <.L1^B1>:
    1038:	99 23       	and	r25, r25
    103a:	a9 f0       	breq	.+42     	; 0x1066 <.L4^B1>
    103c:	f9 2f       	mov	r31, r25
    103e:	96 e9       	ldi	r25, 0x96	; 150
    1040:	bb 27       	eor	r27, r27

00001042 <.L2^B1>:
    1042:	93 95       	inc	r25
    1044:	f6 95       	lsr	r31
    1046:	87 95       	ror	r24
    1048:	77 95       	ror	r23
    104a:	67 95       	ror	r22
    104c:	b7 95       	ror	r27
    104e:	f1 11       	cpse	r31, r1
    1050:	f8 cf       	rjmp	.-16     	; 0x1042 <.L2^B1>
    1052:	fa f4       	brpl	.+62     	; 0x1092 <.L_pack>
    1054:	bb 0f       	add	r27, r27
    1056:	11 f4       	brne	.+4      	; 0x105c <.L3^B1>
    1058:	60 ff       	sbrs	r22, 0
    105a:	1b c0       	rjmp	.+54     	; 0x1092 <.L_pack>

0000105c <.L3^B1>:
    105c:	6f 5f       	subi	r22, 0xFF	; 255
    105e:	7f 4f       	sbci	r23, 0xFF	; 255
    1060:	8f 4f       	sbci	r24, 0xFF	; 255
    1062:	9f 4f       	sbci	r25, 0xFF	; 255
    1064:	16 c0       	rjmp	.+44     	; 0x1092 <.L_pack>

00001066 <.L4^B1>:
    1066:	88 23       	and	r24, r24
    1068:	11 f0       	breq	.+4      	; 0x106e <.L5^B1>
    106a:	96 e9       	ldi	r25, 0x96	; 150
    106c:	11 c0       	rjmp	.+34     	; 0x1090 <.L8^B1>

0000106e <.L5^B1>:
    106e:	77 23       	and	r23, r23
    1070:	21 f0       	breq	.+8      	; 0x107a <.L6^B1>
    1072:	9e e8       	ldi	r25, 0x8E	; 142
    1074:	87 2f       	mov	r24, r23
    1076:	76 2f       	mov	r23, r22
    1078:	05 c0       	rjmp	.+10     	; 0x1084 <.L7^B1>

0000107a <.L6^B1>:
    107a:	66 23       	and	r22, r22
    107c:	71 f0       	breq	.+28     	; 0x109a <.L9^B1>
    107e:	96 e8       	ldi	r25, 0x86	; 134
    1080:	86 2f       	mov	r24, r22
    1082:	70 e0       	ldi	r23, 0x00	; 0

00001084 <.L7^B1>:
    1084:	60 e0       	ldi	r22, 0x00	; 0
    1086:	2a f0       	brmi	.+10     	; 0x1092 <.L_pack>

00001088 <.L10^B1>:
    1088:	9a 95       	dec	r25
    108a:	66 0f       	add	r22, r22
    108c:	77 1f       	adc	r23, r23
    108e:	88 1f       	adc	r24, r24

00001090 <.L8^B1>:
    1090:	da f7       	brpl	.-10     	; 0x1088 <.L10^B1>

00001092 <.L_pack>:
    1092:	88 0f       	add	r24, r24
    1094:	96 95       	lsr	r25
    1096:	87 95       	ror	r24
    1098:	97 f9       	bld	r25, 7

0000109a <.L9^B1>:
    109a:	08 95       	ret

0000109c <__fp_inf>:
    109c:	97 f9       	bld	r25, 7
    109e:	9f 67       	ori	r25, 0x7F	; 127
    10a0:	80 e8       	ldi	r24, 0x80	; 128
    10a2:	70 e0       	ldi	r23, 0x00	; 0
    10a4:	60 e0       	ldi	r22, 0x00	; 0
    10a6:	08 95       	ret

000010a8 <__fp_nan>:
    10a8:	9f ef       	ldi	r25, 0xFF	; 255
    10aa:	80 ec       	ldi	r24, 0xC0	; 192
    10ac:	08 95       	ret

000010ae <__fp_pscA>:
    10ae:	00 24       	eor	r0, r0
    10b0:	0a 94       	dec	r0
    10b2:	16 16       	cp	r1, r22
    10b4:	17 06       	cpc	r1, r23
    10b6:	18 06       	cpc	r1, r24
    10b8:	09 06       	cpc	r0, r25
    10ba:	08 95       	ret

000010bc <__fp_pscB>:
    10bc:	00 24       	eor	r0, r0
    10be:	0a 94       	dec	r0
    10c0:	12 16       	cp	r1, r18
    10c2:	13 06       	cpc	r1, r19
    10c4:	14 06       	cpc	r1, r20
    10c6:	05 06       	cpc	r0, r21
    10c8:	08 95       	ret

000010ca <__fp_round>:
    10ca:	09 2e       	mov	r0, r25
    10cc:	03 94       	inc	r0
    10ce:	00 0c       	add	r0, r0
    10d0:	11 f4       	brne	.+4      	; 0x10d6 <.L1^B1>
    10d2:	88 23       	and	r24, r24
    10d4:	52 f0       	brmi	.+20     	; 0x10ea <.L3^B1>

000010d6 <.L1^B1>:
    10d6:	bb 0f       	add	r27, r27
    10d8:	40 f4       	brcc	.+16     	; 0x10ea <.L3^B1>
    10da:	bf 2b       	or	r27, r31
    10dc:	11 f4       	brne	.+4      	; 0x10e2 <.L2^B1>
    10de:	60 ff       	sbrs	r22, 0
    10e0:	04 c0       	rjmp	.+8      	; 0x10ea <.L3^B1>

000010e2 <.L2^B1>:
    10e2:	6f 5f       	subi	r22, 0xFF	; 255
    10e4:	7f 4f       	sbci	r23, 0xFF	; 255
    10e6:	8f 4f       	sbci	r24, 0xFF	; 255
    10e8:	9f 4f       	sbci	r25, 0xFF	; 255

000010ea <.L3^B1>:
    10ea:	08 95       	ret

000010ec <__fp_split3>:
    10ec:	57 fd       	sbrc	r21, 7
    10ee:	90 58       	subi	r25, 0x80	; 128
    10f0:	44 0f       	add	r20, r20
    10f2:	55 1f       	adc	r21, r21
    10f4:	59 f0       	breq	.+22     	; 0x110c <.L4^B1>
    10f6:	5f 3f       	cpi	r21, 0xFF	; 255
    10f8:	71 f0       	breq	.+28     	; 0x1116 <.L5^B1>

000010fa <.L1^B1>:
    10fa:	47 95       	ror	r20

000010fc <__fp_splitA>:
    10fc:	88 0f       	add	r24, r24
    10fe:	97 fb       	bst	r25, 7
    1100:	99 1f       	adc	r25, r25
    1102:	61 f0       	breq	.+24     	; 0x111c <.L6^B1>
    1104:	9f 3f       	cpi	r25, 0xFF	; 255
    1106:	79 f0       	breq	.+30     	; 0x1126 <.L7^B1>

00001108 <.L3^B1>:
    1108:	87 95       	ror	r24
    110a:	08 95       	ret

0000110c <.L4^B1>:
    110c:	12 16       	cp	r1, r18
    110e:	13 06       	cpc	r1, r19
    1110:	14 06       	cpc	r1, r20
    1112:	55 1f       	adc	r21, r21
    1114:	f2 cf       	rjmp	.-28     	; 0x10fa <.L1^B1>

00001116 <.L5^B1>:
    1116:	46 95       	lsr	r20
    1118:	f1 df       	rcall	.-30     	; 0x10fc <__fp_splitA>
    111a:	08 c0       	rjmp	.+16     	; 0x112c <.L8^B1>

0000111c <.L6^B1>:
    111c:	16 16       	cp	r1, r22
    111e:	17 06       	cpc	r1, r23
    1120:	18 06       	cpc	r1, r24
    1122:	99 1f       	adc	r25, r25
    1124:	f1 cf       	rjmp	.-30     	; 0x1108 <.L3^B1>

00001126 <.L7^B1>:
    1126:	86 95       	lsr	r24
    1128:	71 05       	cpc	r23, r1
    112a:	61 05       	cpc	r22, r1

0000112c <.L8^B1>:
    112c:	08 94       	sec
    112e:	08 95       	ret

00001130 <__fp_zero>:
    1130:	e8 94       	clt

00001132 <__fp_szero>:
    1132:	bb 27       	eor	r27, r27
    1134:	66 27       	eor	r22, r22
    1136:	77 27       	eor	r23, r23
    1138:	cb 01       	movw	r24, r22
    113a:	97 f9       	bld	r25, 7
    113c:	08 95       	ret

0000113e <__mulsf3>:
    113e:	0e 94 b2 08 	call	0x1164	; 0x1164 <__mulsf3x>
    1142:	0c 94 65 08 	jmp	0x10ca	; 0x10ca <__fp_round>

00001146 <.L^B1>:
    1146:	0e 94 57 08 	call	0x10ae	; 0x10ae <__fp_pscA>
    114a:	38 f0       	brcs	.+14     	; 0x115a <.L1^B1>
    114c:	0e 94 5e 08 	call	0x10bc	; 0x10bc <__fp_pscB>
    1150:	20 f0       	brcs	.+8      	; 0x115a <.L1^B1>
    1152:	95 23       	and	r25, r21
    1154:	11 f0       	breq	.+4      	; 0x115a <.L1^B1>
    1156:	0c 94 4e 08 	jmp	0x109c	; 0x109c <__fp_inf>

0000115a <.L1^B1>:
    115a:	0c 94 54 08 	jmp	0x10a8	; 0x10a8 <__fp_nan>

0000115e <.L2^B1>:
    115e:	11 24       	eor	r1, r1
    1160:	0c 94 99 08 	jmp	0x1132	; 0x1132 <__fp_szero>

00001164 <__mulsf3x>:
    1164:	0e 94 76 08 	call	0x10ec	; 0x10ec <__fp_split3>
    1168:	70 f3       	brcs	.-36     	; 0x1146 <.L^B1>

0000116a <__mulsf3_pse>:
    116a:	95 9f       	mul	r25, r21
    116c:	c1 f3       	breq	.-16     	; 0x115e <.L2^B1>
    116e:	95 0f       	add	r25, r21
    1170:	50 e0       	ldi	r21, 0x00	; 0
    1172:	55 1f       	adc	r21, r21
    1174:	62 9f       	mul	r22, r18
    1176:	f0 01       	movw	r30, r0
    1178:	72 9f       	mul	r23, r18
    117a:	bb 27       	eor	r27, r27
    117c:	f0 0d       	add	r31, r0
    117e:	b1 1d       	adc	r27, r1
    1180:	63 9f       	mul	r22, r19
    1182:	aa 27       	eor	r26, r26
    1184:	f0 0d       	add	r31, r0
    1186:	b1 1d       	adc	r27, r1
    1188:	aa 1f       	adc	r26, r26
    118a:	64 9f       	mul	r22, r20
    118c:	66 27       	eor	r22, r22
    118e:	b0 0d       	add	r27, r0
    1190:	a1 1d       	adc	r26, r1
    1192:	66 1f       	adc	r22, r22
    1194:	82 9f       	mul	r24, r18
    1196:	22 27       	eor	r18, r18
    1198:	b0 0d       	add	r27, r0
    119a:	a1 1d       	adc	r26, r1
    119c:	62 1f       	adc	r22, r18
    119e:	73 9f       	mul	r23, r19
    11a0:	b0 0d       	add	r27, r0
    11a2:	a1 1d       	adc	r26, r1
    11a4:	62 1f       	adc	r22, r18
    11a6:	83 9f       	mul	r24, r19
    11a8:	a0 0d       	add	r26, r0
    11aa:	61 1d       	adc	r22, r1
    11ac:	22 1f       	adc	r18, r18
    11ae:	74 9f       	mul	r23, r20
    11b0:	33 27       	eor	r19, r19
    11b2:	a0 0d       	add	r26, r0
    11b4:	61 1d       	adc	r22, r1
    11b6:	23 1f       	adc	r18, r19
    11b8:	84 9f       	mul	r24, r20
    11ba:	60 0d       	add	r22, r0
    11bc:	21 1d       	adc	r18, r1
    11be:	82 2f       	mov	r24, r18
    11c0:	76 2f       	mov	r23, r22
    11c2:	6a 2f       	mov	r22, r26
    11c4:	11 24       	eor	r1, r1
    11c6:	9f 57       	subi	r25, 0x7F	; 127
    11c8:	50 40       	sbci	r21, 0x00	; 0
    11ca:	9a f0       	brmi	.+38     	; 0x11f2 <.L13^B1>
    11cc:	f1 f0       	breq	.+60     	; 0x120a <.L15^B1>

000011ce <.L10^B1>:
    11ce:	88 23       	and	r24, r24
    11d0:	4a f0       	brmi	.+18     	; 0x11e4 <.L11^B1>
    11d2:	ee 0f       	add	r30, r30
    11d4:	ff 1f       	adc	r31, r31
    11d6:	bb 1f       	adc	r27, r27
    11d8:	66 1f       	adc	r22, r22
    11da:	77 1f       	adc	r23, r23
    11dc:	88 1f       	adc	r24, r24
    11de:	91 50       	subi	r25, 0x01	; 1
    11e0:	50 40       	sbci	r21, 0x00	; 0
    11e2:	a9 f7       	brne	.-22     	; 0x11ce <.L10^B1>

000011e4 <.L11^B1>:
    11e4:	9e 3f       	cpi	r25, 0xFE	; 254
    11e6:	51 05       	cpc	r21, r1
    11e8:	80 f0       	brcs	.+32     	; 0x120a <.L15^B1>
    11ea:	0c 94 4e 08 	jmp	0x109c	; 0x109c <__fp_inf>

000011ee <.L12^B1>:
    11ee:	0c 94 99 08 	jmp	0x1132	; 0x1132 <__fp_szero>

000011f2 <.L13^B1>:
    11f2:	5f 3f       	cpi	r21, 0xFF	; 255
    11f4:	e4 f3       	brlt	.-8      	; 0x11ee <.L12^B1>
    11f6:	98 3e       	cpi	r25, 0xE8	; 232
    11f8:	d4 f3       	brlt	.-12     	; 0x11ee <.L12^B1>

000011fa <.L14^B1>:
    11fa:	86 95       	lsr	r24
    11fc:	77 95       	ror	r23
    11fe:	67 95       	ror	r22
    1200:	b7 95       	ror	r27
    1202:	f7 95       	ror	r31
    1204:	e7 95       	ror	r30
    1206:	9f 5f       	subi	r25, 0xFF	; 255
    1208:	c1 f7       	brne	.-16     	; 0x11fa <.L14^B1>

0000120a <.L15^B1>:
    120a:	fe 2b       	or	r31, r30
    120c:	88 0f       	add	r24, r24
    120e:	91 1d       	adc	r25, r1
    1210:	96 95       	lsr	r25
    1212:	87 95       	ror	r24
    1214:	97 f9       	bld	r25, 7
    1216:	08 95       	ret

00001218 <_exit>:
    1218:	f8 94       	cli

0000121a <__stop_program>:
    121a:	ff cf       	rjmp	.-2      	; 0x121a <__stop_program>
